
bazel-out/k8-fastbuild-ST-2cc462681f62/bin/sw/tests/opentitan/sram_hello_world/sram_hello_world_sim_verilator.elf:     file format elf32-littleriscv
bazel-out/k8-fastbuild-ST-2cc462681f62/bin/sw/tests/opentitan/sram_hello_world/sram_hello_world_sim_verilator.elf
architecture: riscv:rv32, flags 0x00000112:
EXEC_P, HAS_SYMS, D_PAGED
start address 0xe0000080

Program Header:
    LOAD off    0x00001000 vaddr 0xe0000000 paddr 0xe0000000 align 2**12
         filesz 0x000023f0 memsz 0x000023f0 flags rwx
    LOAD off    0x00000000 vaddr 0xe0008000 paddr 0xe0008000 align 2**12
         filesz 0x00000000 memsz 0x00002000 flags rw-
   STACK off    0x00000000 vaddr 0x00000000 paddr 0x00000000 align 2**4
         filesz 0x00000000 memsz 0x00000000 flags rw-

Sections:
Idx Name                          Size      VMA       LMA       File off  Algn  Flags
  0 .vectors                      00000084  e0000000  e0000000  00001000  2**0  CONTENTS, ALLOC, LOAD, READONLY, CODE
  1 .text                         000003f6  e0000084  e0000084  00001084  2**2  CONTENTS, ALLOC, LOAD, READONLY, CODE
  2 .rodata                       00000024  e000047c  e000047c  0000147c  2**2  CONTENTS, ALLOC, LOAD, READONLY, DATA
  3 .data                         00000000  e00004a0  e00023f0  000033f0  2**0  CONTENTS, ALLOC, LOAD, DATA
  4 .static_critical.sec_mmio_ctx 00001f50  e00004a0  e00004a0  000014a0  2**2  CONTENTS, ALLOC, LOAD, DATA
  5 .bss                          00000000  e00023f0  e00023f0  00000000  2**0  ALLOC
  6 .logs.fields                  00000000  e00023f0  e00023f0  000033f0  2**0  CONTENTS
  7 .stack                        00002000  e0008000  e0008000  00004000  2**0  ALLOC
  8 .debug_loc                    0000134e  00000000  00000000  000033f0  2**0  CONTENTS, READONLY, DEBUGGING, OCTETS
  9 .debug_abbrev                 00000b57  00000000  00000000  0000473e  2**0  CONTENTS, READONLY, DEBUGGING, OCTETS
 10 .debug_info                   00002d44  00000000  00000000  00005295  2**0  CONTENTS, READONLY, DEBUGGING, OCTETS
 11 .debug_str                    000033e9  00000000  00000000  00007fd9  2**0  CONTENTS, READONLY, DEBUGGING, OCTETS
 12 .comment                      00000074  00000000  00000000  0000b3c2  2**0  CONTENTS, READONLY
 13 .riscv.attributes             00000026  00000000  00000000  0000b436  2**0  CONTENTS, READONLY
 14 .debug_frame                  00000354  00000000  00000000  0000b45c  2**2  CONTENTS, READONLY, DEBUGGING, OCTETS
 15 .debug_line                   00001c4f  00000000  00000000  0000b7b0  2**0  CONTENTS, READONLY, DEBUGGING, OCTETS
 16 .debug_ranges                 00000308  00000000  00000000  0000d3ff  2**0  CONTENTS, READONLY, DEBUGGING, OCTETS
 17 .debug_aranges                00000028  00000000  00000000  0000d707  2**0  CONTENTS, READONLY, DEBUGGING, OCTETS
SYMBOL TABLE:
e0000000 l    d  .vectors       00000000 .vectors
e0000084 l    d  .text  00000000 .text
e000047c l    d  .rodata        00000000 .rodata
e00004a0 l    d  .data  00000000 .data
e00004a0 l    d  .static_critical.sec_mmio_ctx  00000000 .static_critical.sec_mmio_ctx
e00023f0 l    d  .bss   00000000 .bss
e00023f0 l    d  .logs.fields   00000000 .logs.fields
e0008000 l    d  .stack 00000000 .stack
00000000 l    d  .debug_loc     00000000 .debug_loc
00000000 l    d  .debug_abbrev  00000000 .debug_abbrev
00000000 l    d  .debug_info    00000000 .debug_info
00000000 l    d  .debug_str     00000000 .debug_str
00000000 l    d  .comment       00000000 .comment
00000000 l    d  .riscv.attributes      00000000 .riscv.attributes
00000000 l    d  .debug_frame   00000000 .debug_frame
00000000 l    d  .debug_line    00000000 .debug_line
00000000 l    d  .debug_ranges  00000000 .debug_ranges
00000000 l    d  .debug_aranges 00000000 .debug_aranges
00000000 l    df *ABS*  00000000 crt0.o
e0000084 l       .text  00000000 default_exc_handler
e0000084 l       .text  00000000 
e00000fe l       .text  00000000 sleep_loop
e0000084 l       .text  00000000 
e0000086 l       .text  00000000 reset_handler
e0000086 l       .text  00000000 
e0000086 l       .text  00000000 
e00000cc l       .text  00000000 
e00000ea l       .text  00000000 zero_loop_end
e00000e0 l       .text  00000000 zero_loop
e00000e0 l       .text  00000000 
e00000ea l       .text  00000000 
e00000ea l       .text  00000000 main_entry
e00000ea l       .text  00000000 
e00000ee l       .text  00000000 
e00000f2 l       .text  00000000 
e00000fe l       .text  00000000 
e0000102 l       .text  00000000 
e0000000 l       .vectors       00000000 
e000002c l       .vectors       00000000 
e0000030 l       .vectors       00000000 
e000007c l       .vectors       00000000 
e0000080 l       .vectors       00000000 
00000af9 l       .debug_info    00000000 
0000037a l       .debug_abbrev  00000000 
e0000104 l       .text  00000000 
e0000084 l       .vectors       00000000 
00000140 l       .debug_ranges  00000000 
00000000 l    df *ABS*  00000000 sram_hello_world.c
e0000104 l       .text  00000000 
e0000104 l       .text  00000000 
e0000104 l       .text  00000000 
e0000106 l       .text  00000000 
e0000106 l       .text  00000000 
e0000108 l       .text  00000000 
e000010a l       .text  00000000 
e000010a l       .text  00000000 
e000010c l       .text  00000000 
e000010c l       .text  00000000 
e0000116 l       .text  00000000 
e0000118 l       .text  00000000 
e0000118 l       .text  00000000 
e0000122 l       .text  00000000 
e0000122 l       .text  00000000 
e0000128 l       .text  00000000 
e0000128 l       .text  00000000 
e000012e l       .text  00000000 
e000012e l       .text  00000000 
e0000134 l       .text  00000000 
e0000134 l       .text  00000000 
e000013a l       .text  00000000 
e000013a l       .text  00000000 
e0000140 l       .text  00000000 
e0000140 l       .text  00000000 
e0000146 l       .text  00000000 
e0000146 l       .text  00000000 
e000014c l       .text  00000000 
e000014c l       .text  00000000 
e0000152 l       .text  00000000 
e0000152 l       .text  00000000 
e0000158 l       .text  00000000 
e0000158 l       .text  00000000 
e000015e l       .text  00000000 
e000015e l       .text  00000000 
e0000164 l       .text  00000000 
e0000164 l       .text  00000000 
e000016a l       .text  00000000 
e000016a l       .text  00000000 
e000016e l       .text  00000000 
e000016e l       .text  00000000 
e0000172 l       .text  00000000 
e0000172 l       .text  00000000 
e000017a l       .text  00000000 
e000017a l       .text  00000000 
00000000 l       .debug_loc     00000000 
00000013 l       .debug_loc     00000000 
00000000 l       .debug_str     00000000 
00000074 l       .debug_str     00000000 
000000ab l       .debug_str     00000000 
000004ce l       .debug_str     00000000 
000000ba l       .debug_str     00000000 
000000c3 l       .debug_str     00000000 
000000d1 l       .debug_str     00000000 
000000f2 l       .debug_str     00000000 
00000108 l       .debug_str     00000000 
00000124 l       .debug_str     00000000 
00000139 l       .debug_str     00000000 
00000155 l       .debug_str     00000000 
00000171 l       .debug_str     00000000 
00000185 l       .debug_str     00000000 
00000199 l       .debug_str     00000000 
000001ae l       .debug_str     00000000 
000001c7 l       .debug_str     00000000 
000001db l       .debug_str     00000000 
000001ef l       .debug_str     00000000 
000001ff l       .debug_str     00000000 
00000212 l       .debug_str     00000000 
0000022c l       .debug_str     00000000 
00000243 l       .debug_str     00000000 
0000025d l       .debug_str     00000000 
00000279 l       .debug_str     00000000 
00000295 l       .debug_str     00000000 
000002ac l       .debug_str     00000000 
000002c2 l       .debug_str     00000000 
000002da l       .debug_str     00000000 
000002f2 l       .debug_str     00000000 
0000030b l       .debug_str     00000000 
00000324 l       .debug_str     00000000 
0000033d l       .debug_str     00000000 
00000356 l       .debug_str     00000000 
00000375 l       .debug_str     00000000 
00000393 l       .debug_str     00000000 
000003ad l       .debug_str     00000000 
000003c6 l       .debug_str     00000000 
000003e2 l       .debug_str     00000000 
00000400 l       .debug_str     00000000 
0000041c l       .debug_str     00000000 
00000438 l       .debug_str     00000000 
00000454 l       .debug_str     00000000 
0000046b l       .debug_str     00000000 
00000484 l       .debug_str     00000000 
0000049a l       .debug_str     00000000 
000004b9 l       .debug_str     00000000 
00003020 l       .debug_str     00000000 
0000052e l       .debug_str     00000000 
00000533 l       .debug_str     00000000 
00000538 l       .debug_str     00000000 
000004d8 l       .debug_str     00000000 
000004e6 l       .debug_str     00000000 
000004f2 l       .debug_str     00000000 
000004fc l       .debug_str     00000000 
00000507 l       .debug_str     00000000 
00000529 l       .debug_str     00000000 
00000513 l       .debug_str     00000000 
00000520 l       .debug_str     00000000 
00003029 l       .debug_str     00000000 
00000000 l       .debug_frame   00000000 
e000017a l       .text  00000000 
00000000 l    df *ABS*  00000000 utils.c
e000017a l       .text  00000000 
e000017a l       .text  00000000 
e000017a l       .text  00000000 
e000017c l       .text  00000000 
e000017c l       .text  00000000 
e000018a l       .text  00000000 
e0000192 l       .text  00000000 
e0000194 l       .text  00000000 
e0000198 l       .text  00000000 
e000019c l       .text  00000000 
e00001a8 l       .text  00000000 
e00001aa l       .text  00000000 
e00001ac l       .text  00000000 
e00001ac l       .text  00000000 
e00001ae l       .text  00000000 
e00001ae l       .text  00000000 
e00001b0 l       .text  00000000 
e00001b0 l       .text  00000000 
e00001b2 l       .text  00000000 
e00001b2 l       .text  00000000 
e00001b6 l       .text  00000000 
e00001b6 l       .text  00000000 
e00001be l       .text  00000000 
e00001c0 l       .text  00000000 
e00001c0 l       .text  00000000 
e00001c2 l       .text  00000000 
e00001c2 l       .text  00000000 
e00001d8 l       .text  00000000 
e00001dc l       .text  00000000 
e00001de l       .text  00000000 
e00001e0 l       .text  00000000 
e00001e0 l       .text  00000000 
e00001e2 l       .text  00000000 
e00001e6 l       .text  00000000 
e00001e8 l       .text  00000000 
e00001f4 l       .text  00000000 
e00001f4 l       .text  00000000 
00000026 l       .debug_loc     00000000 
0000004c l       .debug_loc     00000000 
00000074 l       .debug_loc     00000000 
0000009a l       .debug_loc     00000000 
000000f7 l       .debug_loc     00000000 
0000011f l       .debug_loc     00000000 
00000145 l       .debug_loc     00000000 
0000017a l       .debug_loc     00000000 
000001ba l       .debug_loc     00000000 
000001d5 l       .debug_loc     00000000 
000001f6 l       .debug_loc     00000000 
00000211 l       .debug_loc     00000000 
0000022c l       .debug_loc     00000000 
00000247 l       .debug_loc     00000000 
00000262 l       .debug_loc     00000000 
0000028a l       .debug_loc     00000000 
000002bb l       .debug_loc     00000000 
000002f0 l       .debug_loc     00000000 
00000318 l       .debug_loc     00000000 
00000334 l       .debug_loc     00000000 
0000034f l       .debug_loc     00000000 
0000036a l       .debug_loc     00000000 
00000385 l       .debug_loc     00000000 
000003a0 l       .debug_loc     00000000 
000003bb l       .debug_loc     00000000 
000003d6 l       .debug_loc     00000000 
000003f1 l       .debug_loc     00000000 
0000044e l       .debug_loc     00000000 
00000474 l       .debug_loc     00000000 
000004b4 l       .debug_loc     00000000 
000004dc l       .debug_loc     00000000 
00000502 l       .debug_loc     00000000 
00000542 l       .debug_loc     00000000 
00000574 l       .debug_loc     00000000 
000005a0 l       .debug_loc     00000000 
000005bb l       .debug_loc     00000000 
000005d6 l       .debug_loc     00000000 
000005f7 l       .debug_loc     00000000 
00000612 l       .debug_loc     00000000 
00000638 l       .debug_loc     00000000 
00000674 l       .debug_loc     00000000 
0000069a l       .debug_loc     00000000 
000006e1 l       .debug_loc     00000000 
00000728 l       .debug_loc     00000000 
00000764 l       .debug_loc     00000000 
0000078c l       .debug_loc     00000000 
000007e9 l       .debug_loc     00000000 
00000813 l       .debug_loc     00000000 
00000855 l       .debug_loc     00000000 
000008de l       .debug_loc     00000000 
000008f9 l       .debug_loc     00000000 
0000091f l       .debug_loc     00000000 
00000945 l       .debug_loc     00000000 
00000962 l       .debug_loc     00000000 
00000000 l       .debug_str     00000000 
0000053d l       .debug_str     00000000 
000000ab l       .debug_str     00000000 
000000d8 l       .debug_ranges  00000000 
0000055f l       .debug_str     00000000 
00000529 l       .debug_str     00000000 
0000056c l       .debug_str     00000000 
00003020 l       .debug_str     00000000 
00003029 l       .debug_str     00000000 
000005e1 l       .debug_str     00000000 
00000500 l       .debug_str     00000000 
00000587 l       .debug_str     00000000 
0000058e l       .debug_str     00000000 
000005a7 l       .debug_str     00000000 
00000580 l       .debug_str     00000000 
000021e9 l       .debug_str     00000000 
000005a3 l       .debug_str     00000000 
000005aa l       .debug_str     00000000 
000005b0 l       .debug_str     00000000 
00001be4 l       .debug_str     00000000 
0000059b l       .debug_str     00000000 
00000591 l       .debug_str     00000000 
000005b4 l       .debug_str     00000000 
000000a9 l       .debug_str     00000000 
00000518 l       .debug_str     00000000 
000005c2 l       .debug_str     00000000 
000005cd l       .debug_str     00000000 
00000644 l       .debug_str     00000000 
000006bf l       .debug_str     00000000 
000006c6 l       .debug_str     00000000 
000006ce l       .debug_str     00000000 
0000067f l       .debug_str     00000000 
00000030 l       .debug_ranges  00000000 
00000048 l       .debug_ranges  00000000 
00000060 l       .debug_ranges  00000000 
00000078 l       .debug_ranges  00000000 
00000090 l       .debug_ranges  00000000 
000000a8 l       .debug_ranges  00000000 
0000064c l       .debug_str     00000000 
00000f58 l       .debug_str     00000000 
0000297e l       .debug_str     00000000 
000006dc l       .debug_str     00000000 
000006df l       .debug_str     00000000 
000006d2 l       .debug_str     00000000 
000006e7 l       .debug_str     00000000 
000006e9 l       .debug_str     00000000 
00002eff l       .debug_str     00000000 
000000c0 l       .debug_ranges  00000000 
000005f4 l       .debug_str     00000000 
00000654 l       .debug_str     00000000 
0000065b l       .debug_str     00000000 
00000601 l       .debug_str     00000000 
0000060b l       .debug_str     00000000 
00000618 l       .debug_str     00000000 
0000062a l       .debug_str     00000000 
00000000 l       .debug_ranges  00000000 
00000018 l       .debug_ranges  00000000 
0000062f l       .debug_str     00000000 
00000683 l       .debug_str     00000000 
0000068b l       .debug_str     00000000 
000026ee l       .debug_str     00000000 
000002d8 l       .debug_str     00000000 
000000f0 l       .debug_str     00000000 
00000691 l       .debug_str     00000000 
00000698 l       .debug_str     00000000 
000006a3 l       .debug_str     00000000 
000006aa l       .debug_str     00000000 
000006b1 l       .debug_str     00000000 
000006b8 l       .debug_str     00000000 
000005d1 l       .debug_str     00000000 
00000fbf l       .debug_str     00000000 
000005d8 l       .debug_str     00000000 
000005df l       .debug_str     00000000 
0000052c l       .debug_str     00000000 
00000676 l       .debug_str     00000000 
00000667 l       .debug_str     00000000 
0000002c l       .debug_frame   00000000 
e00001f4 l       .text  00000000 
00000000 l    df *ABS*  00000000 rom_print.c
e00001f4 l       .text  00000000 
e00001f4 l       .text  00000000 
e00001f4 l       .text  00000000 
e00001f6 l       .text  00000000 
e0000208 l       .text  00000000 
e000020a l       .text  00000000 
e000021a l       .text  00000000 
e000021a l       .text  00000000 
e000022c l       .text  00000000 
e000048b l     O .rodata        00000010 rom_printf.kHexTable
e000022c l       .text  00000000 
e0000238 l       .text  00000000 
e0000238 l       .text  00000000 
e000023c l       .text  00000000 
e0000242 l       .text  00000000 
e0000244 l       .text  00000000 
e0000246 l       .text  00000000 
e0000246 l       .text  00000000 
e0000248 l       .text  00000000 
e0000248 l       .text  00000000 
e000024c l       .text  00000000 
e0000250 l       .text  00000000 
e0000250 l       .text  00000000 
e0000258 l       .text  00000000 
e0000258 l       .text  00000000 
e000025a l       .text  00000000 
e000025e l       .text  00000000 
e0000262 l       .text  00000000 
e0000262 l       .text  00000000 
e0000268 l       .text  00000000 
e000026a l       .text  00000000 
e000026a l       .text  00000000 
e000026e l       .text  00000000 
e000026e l       .text  00000000 
e0000274 l       .text  00000000 
e0000274 l       .text  00000000 
e0000278 l       .text  00000000 
e000027e l       .text  00000000 
e000027e l       .text  00000000 
e0000280 l       .text  00000000 
e0000284 l       .text  00000000 
e0000288 l       .text  00000000 
e0000288 l       .text  00000000 
e000028a l       .text  00000000 
e000028a l       .text  00000000 
e000028e l       .text  00000000 
e0000294 l       .text  00000000 
e0000296 l       .text  00000000 
e0000296 l       .text  00000000 
e0000298 l       .text  00000000 
e0000298 l       .text  00000000 
e000029a l       .text  00000000 
e000029a l       .text  00000000 
e000029c l       .text  00000000 
e000029c l       .text  00000000 
e000029e l       .text  00000000 
e00002a4 l       .text  00000000 
e00002a4 l       .text  00000000 
e00002bc l       .text  00000000 
e00002bc l       .text  00000000 
00000983 l       .debug_loc     00000000 
000009cf l       .debug_loc     00000000 
00000a0f l       .debug_loc     00000000 
00000a22 l       .debug_loc     00000000 
00000a35 l       .debug_loc     00000000 
00000000 l       .debug_str     00000000 
000006ed l       .debug_str     00000000 
000000ab l       .debug_str     00000000 
000004fc l       .debug_str     00000000 
00000717 l       .debug_str     00000000 
00000587 l       .debug_str     00000000 
00000721 l       .debug_str     00000000 
00000168 l       .debug_ranges  00000000 
000005cd l       .debug_str     00000000 
0000053b l       .debug_str     00000000 
00000f58 l       .debug_str     00000000 
00000180 l       .debug_ranges  00000000 
00000726 l       .debug_str     00000000 
00000529 l       .debug_str     00000000 
0000056c l       .debug_str     00000000 
000004ce l       .debug_str     00000000 
000000ba l       .debug_str     00000000 
000000c3 l       .debug_str     00000000 
000000d1 l       .debug_str     00000000 
000000f2 l       .debug_str     00000000 
00000108 l       .debug_str     00000000 
00000124 l       .debug_str     00000000 
00000139 l       .debug_str     00000000 
00000155 l       .debug_str     00000000 
00000171 l       .debug_str     00000000 
00000185 l       .debug_str     00000000 
00000199 l       .debug_str     00000000 
000001ae l       .debug_str     00000000 
000001c7 l       .debug_str     00000000 
000001db l       .debug_str     00000000 
000001ef l       .debug_str     00000000 
000001ff l       .debug_str     00000000 
00000212 l       .debug_str     00000000 
0000022c l       .debug_str     00000000 
00000243 l       .debug_str     00000000 
0000025d l       .debug_str     00000000 
00000279 l       .debug_str     00000000 
00000295 l       .debug_str     00000000 
000002ac l       .debug_str     00000000 
000002c2 l       .debug_str     00000000 
000002da l       .debug_str     00000000 
000002f2 l       .debug_str     00000000 
0000030b l       .debug_str     00000000 
00000324 l       .debug_str     00000000 
0000033d l       .debug_str     00000000 
00000356 l       .debug_str     00000000 
00000375 l       .debug_str     00000000 
00000393 l       .debug_str     00000000 
000003ad l       .debug_str     00000000 
000003c6 l       .debug_str     00000000 
000003e2 l       .debug_str     00000000 
00000400 l       .debug_str     00000000 
0000041c l       .debug_str     00000000 
00000438 l       .debug_str     00000000 
00000454 l       .debug_str     00000000 
0000046b l       .debug_str     00000000 
00000484 l       .debug_str     00000000 
0000049a l       .debug_str     00000000 
000004b9 l       .debug_str     00000000 
00003020 l       .debug_str     00000000 
00000513 l       .debug_str     00000000 
00000520 l       .debug_str     00000000 
00000507 l       .debug_str     00000000 
0000059b l       .debug_str     00000000 
00000591 l       .debug_str     00000000 
00003029 l       .debug_str     00000000 
0000013c l       .debug_frame   00000000 
e00002bc l       .text  00000000 
00000000 l    df *ABS*  00000000 pinmux.c
e00002bc l       .text  00000000 
e00002bc l       .text  00000000 
e00002bc l       .text  00000000 
e00002be l       .text  00000000 
e00002be l       .text  00000000 
e00002c0 l       .text  00000000 
e00002c6 l       .text  00000000 
e00002c6 l       .text  00000000 
e00002c8 l       .text  00000000 
e00002c8 l       .text  00000000 
e00002cc l       .text  00000000 
e00002cc l       .text  00000000 
e00002d0 l       .text  00000000 
e00002d0 l       .text  00000000 
e00002e0 l       .text  00000000 
e00002e0 l       .text  00000000 
e00002e2 l       .text  00000000 
e00002e2 l       .text  00000000 
e00002e6 l       .text  00000000 
e00002e6 l       .text  00000000 
e00002ea l       .text  00000000 
e00002ea l       .text  00000000 
e00002f0 l       .text  00000000 
e00002f0 l       .text  00000000 
e00002f6 l       .text  00000000 
e00002f6 l       .text  00000000 
e0000300 l       .text  00000000 
e0000300 l       .text  00000000 
e0000302 l       .text  00000000 
e0000302 l       .text  00000000 
e0000308 l       .text  00000000 
e0000308 l       .text  00000000 
e0000310 l       .text  00000000 
e0000310 l       .text  00000000 
e0000314 l       .text  00000000 
e0000314 l       .text  00000000 
e000031a l       .text  00000000 
e000031a l       .text  00000000 
00000a66 l       .debug_loc     00000000 
00000a84 l       .debug_loc     00000000 
00000a97 l       .debug_loc     00000000 
00000ab1 l       .debug_loc     00000000 
00000acb l       .debug_loc     00000000 
00000ae5 l       .debug_loc     00000000 
00000b00 l       .debug_loc     00000000 
00000000 l       .debug_str     00000000 
0000072c l       .debug_str     00000000 
000000ab l       .debug_str     00000000 
0000075b l       .debug_str     00000000 
00001c0d l       .debug_str     00000000 
00001c00 l       .debug_str     00000000 
0000076a l       .debug_str     00000000 
000016c2 l       .debug_str     00000000 
000005b0 l       .debug_str     00000000 
000010f9 l       .debug_str     00000000 
000010d7 l       .debug_str     00000000 
00000771 l       .debug_str     00000000 
00000799 l       .debug_str     00000000 
000007c1 l       .debug_str     00000000 
000007e9 l       .debug_str     00000000 
00000811 l       .debug_str     00000000 
00000839 l       .debug_str     00000000 
00000861 l       .debug_str     00000000 
00000889 l       .debug_str     00000000 
000008b1 l       .debug_str     00000000 
000008d9 l       .debug_str     00000000 
00000901 l       .debug_str     00000000 
0000092a l       .debug_str     00000000 
00000953 l       .debug_str     00000000 
0000097c l       .debug_str     00000000 
000009a5 l       .debug_str     00000000 
000009ce l       .debug_str     00000000 
000009f7 l       .debug_str     00000000 
00000a20 l       .debug_str     00000000 
00000a49 l       .debug_str     00000000 
00000a72 l       .debug_str     00000000 
00000a9b l       .debug_str     00000000 
00000ac4 l       .debug_str     00000000 
00000aed l       .debug_str     00000000 
00000b16 l       .debug_str     00000000 
00000b3f l       .debug_str     00000000 
00000b68 l       .debug_str     00000000 
00000b91 l       .debug_str     00000000 
00000bba l       .debug_str     00000000 
00000be3 l       .debug_str     00000000 
00000c0c l       .debug_str     00000000 
00000c35 l       .debug_str     00000000 
00000c5e l       .debug_str     00000000 
00000c87 l       .debug_str     00000000 
00000cad l       .debug_str     00000000 
00000cd3 l       .debug_str     00000000 
00000cf9 l       .debug_str     00000000 
00000d1f l       .debug_str     00000000 
00000d45 l       .debug_str     00000000 
00000d6b l       .debug_str     00000000 
00000d95 l       .debug_str     00000000 
00000dbf l       .debug_str     00000000 
00000de9 l       .debug_str     00000000 
00000e13 l       .debug_str     00000000 
00000e39 l       .debug_str     00000000 
00000e5f l       .debug_str     00000000 
00000e85 l       .debug_str     00000000 
00000eab l       .debug_str     00000000 
00000ed9 l       .debug_str     00000000 
00000f04 l       .debug_str     00000000 
00000f2f l       .debug_str     00000000 
00000f5a l       .debug_str     00000000 
00000f8f l       .debug_str     00000000 
00000fc1 l       .debug_str     00000000 
00000ff3 l       .debug_str     00000000 
00001025 l       .debug_str     00000000 
00001057 l       .debug_str     00000000 
0000108a l       .debug_str     00000000 
000010b4 l       .debug_str     00000000 
00003020 l       .debug_str     00000000 
000016c8 l       .debug_str     00000000 
000016ae l       .debug_str     00000000 
0000111d l       .debug_str     00000000 
00001141 l       .debug_str     00000000 
00001164 l       .debug_str     00000000 
00001180 l       .debug_str     00000000 
0000119c l       .debug_str     00000000 
000011b8 l       .debug_str     00000000 
000011d4 l       .debug_str     00000000 
000011f0 l       .debug_str     00000000 
0000120c l       .debug_str     00000000 
00001228 l       .debug_str     00000000 
00001244 l       .debug_str     00000000 
00001260 l       .debug_str     00000000 
0000127c l       .debug_str     00000000 
00001298 l       .debug_str     00000000 
000012b4 l       .debug_str     00000000 
000012d0 l       .debug_str     00000000 
000012ec l       .debug_str     00000000 
00001308 l       .debug_str     00000000 
00001324 l       .debug_str     00000000 
00001340 l       .debug_str     00000000 
0000135c l       .debug_str     00000000 
00001378 l       .debug_str     00000000 
00001395 l       .debug_str     00000000 
000013b2 l       .debug_str     00000000 
000013cf l       .debug_str     00000000 
000013eb l       .debug_str     00000000 
00001407 l       .debug_str     00000000 
00001423 l       .debug_str     00000000 
0000143f l       .debug_str     00000000 
0000145b l       .debug_str     00000000 
00001477 l       .debug_str     00000000 
00001493 l       .debug_str     00000000 
000014af l       .debug_str     00000000 
000014cb l       .debug_str     00000000 
000014e7 l       .debug_str     00000000 
00001504 l       .debug_str     00000000 
00001521 l       .debug_str     00000000 
0000153e l       .debug_str     00000000 
0000155a l       .debug_str     00000000 
00001576 l       .debug_str     00000000 
00001592 l       .debug_str     00000000 
000015ae l       .debug_str     00000000 
000015ca l       .debug_str     00000000 
000015e6 l       .debug_str     00000000 
00001602 l       .debug_str     00000000 
0000161e l       .debug_str     00000000 
0000163b l       .debug_str     00000000 
00001658 l       .debug_str     00000000 
00001675 l       .debug_str     00000000 
00001692 l       .debug_str     00000000 
00001be6 l       .debug_str     00000000 
00001bce l       .debug_str     00000000 
000016e4 l       .debug_str     00000000 
000016fe l       .debug_str     00000000 
00001718 l       .debug_str     00000000 
00001732 l       .debug_str     00000000 
0000174c l       .debug_str     00000000 
00001766 l       .debug_str     00000000 
00001780 l       .debug_str     00000000 
0000179a l       .debug_str     00000000 
000017b4 l       .debug_str     00000000 
000017ce l       .debug_str     00000000 
000017e8 l       .debug_str     00000000 
00001802 l       .debug_str     00000000 
0000181c l       .debug_str     00000000 
00001836 l       .debug_str     00000000 
00001850 l       .debug_str     00000000 
0000186a l       .debug_str     00000000 
00001884 l       .debug_str     00000000 
0000189e l       .debug_str     00000000 
000018b8 l       .debug_str     00000000 
000018d2 l       .debug_str     00000000 
000018ed l       .debug_str     00000000 
00001908 l       .debug_str     00000000 
00001923 l       .debug_str     00000000 
0000193d l       .debug_str     00000000 
00001957 l       .debug_str     00000000 
00001971 l       .debug_str     00000000 
0000198b l       .debug_str     00000000 
000019a5 l       .debug_str     00000000 
000019bf l       .debug_str     00000000 
000019d9 l       .debug_str     00000000 
000019f3 l       .debug_str     00000000 
00001a0d l       .debug_str     00000000 
00001a27 l       .debug_str     00000000 
00001a42 l       .debug_str     00000000 
00001a5d l       .debug_str     00000000 
00001a78 l       .debug_str     00000000 
00001a92 l       .debug_str     00000000 
00001aac l       .debug_str     00000000 
00001ac6 l       .debug_str     00000000 
00001ae0 l       .debug_str     00000000 
00001afa l       .debug_str     00000000 
00001b14 l       .debug_str     00000000 
00001b2e l       .debug_str     00000000 
00001b48 l       .debug_str     00000000 
00001b63 l       .debug_str     00000000 
00001b7e l       .debug_str     00000000 
00001b99 l       .debug_str     00000000 
00001bb4 l       .debug_str     00000000 
00001c1c l       .debug_str     00000000 
00001c2b l       .debug_str     00000000 
00001c3a l       .debug_str     00000000 
00001c46 l       .debug_str     00000000 
00002db8 l       .debug_str     00000000 
00002daa l       .debug_str     00000000 
00001c53 l       .debug_str     00000000 
00002d86 l       .debug_str     00000000 
000021ed l       .debug_str     00000000 
000021d1 l       .debug_str     00000000 
00001c57 l       .debug_str     00000000 
00001c74 l       .debug_str     00000000 
00001c91 l       .debug_str     00000000 
00001cae l       .debug_str     00000000 
00001ccb l       .debug_str     00000000 
00001ce8 l       .debug_str     00000000 
00001d05 l       .debug_str     00000000 
00001d22 l       .debug_str     00000000 
00001d3f l       .debug_str     00000000 
00001d5c l       .debug_str     00000000 
00001d79 l       .debug_str     00000000 
00001d96 l       .debug_str     00000000 
00001db3 l       .debug_str     00000000 
00001dd0 l       .debug_str     00000000 
00001ded l       .debug_str     00000000 
00001e0a l       .debug_str     00000000 
00001e27 l       .debug_str     00000000 
00001e44 l       .debug_str     00000000 
00001e61 l       .debug_str     00000000 
00001e7e l       .debug_str     00000000 
00001e9c l       .debug_str     00000000 
00001eba l       .debug_str     00000000 
00001ed8 l       .debug_str     00000000 
00001ef5 l       .debug_str     00000000 
00001f12 l       .debug_str     00000000 
00001f2f l       .debug_str     00000000 
00001f4c l       .debug_str     00000000 
00001f69 l       .debug_str     00000000 
00001f86 l       .debug_str     00000000 
00001fa3 l       .debug_str     00000000 
00001fc0 l       .debug_str     00000000 
00001fdd l       .debug_str     00000000 
00001ffa l       .debug_str     00000000 
00002018 l       .debug_str     00000000 
00002036 l       .debug_str     00000000 
00002054 l       .debug_str     00000000 
00002071 l       .debug_str     00000000 
0000208e l       .debug_str     00000000 
000020ab l       .debug_str     00000000 
000020c8 l       .debug_str     00000000 
000020e5 l       .debug_str     00000000 
00002102 l       .debug_str     00000000 
0000211f l       .debug_str     00000000 
0000213c l       .debug_str     00000000 
0000215a l       .debug_str     00000000 
00002178 l       .debug_str     00000000 
00002196 l       .debug_str     00000000 
000021b4 l       .debug_str     00000000 
00002d8d l       .debug_str     00000000 
00002d72 l       .debug_str     00000000 
0000220b l       .debug_str     00000000 
00002230 l       .debug_str     00000000 
00002254 l       .debug_str     00000000 
0000227a l       .debug_str     00000000 
0000229c l       .debug_str     00000000 
000022be l       .debug_str     00000000 
000022e0 l       .debug_str     00000000 
00002302 l       .debug_str     00000000 
00002324 l       .debug_str     00000000 
00002346 l       .debug_str     00000000 
00002368 l       .debug_str     00000000 
0000238a l       .debug_str     00000000 
000023ac l       .debug_str     00000000 
000023ce l       .debug_str     00000000 
000023f1 l       .debug_str     00000000 
00002414 l       .debug_str     00000000 
00002437 l       .debug_str     00000000 
0000245a l       .debug_str     00000000 
0000247d l       .debug_str     00000000 
000024a0 l       .debug_str     00000000 
000024c3 l       .debug_str     00000000 
000024e6 l       .debug_str     00000000 
00002509 l       .debug_str     00000000 
0000252c l       .debug_str     00000000 
0000254f l       .debug_str     00000000 
00002572 l       .debug_str     00000000 
00002595 l       .debug_str     00000000 
000025b8 l       .debug_str     00000000 
000025db l       .debug_str     00000000 
000025fe l       .debug_str     00000000 
00002621 l       .debug_str     00000000 
00002644 l       .debug_str     00000000 
00002667 l       .debug_str     00000000 
0000268a l       .debug_str     00000000 
000026ad l       .debug_str     00000000 
000026d0 l       .debug_str     00000000 
000026f0 l       .debug_str     00000000 
00002710 l       .debug_str     00000000 
00002730 l       .debug_str     00000000 
00002750 l       .debug_str     00000000 
00002770 l       .debug_str     00000000 
00002790 l       .debug_str     00000000 
000027b4 l       .debug_str     00000000 
000027d8 l       .debug_str     00000000 
000027fc l       .debug_str     00000000 
00002820 l       .debug_str     00000000 
00002840 l       .debug_str     00000000 
00002860 l       .debug_str     00000000 
00002880 l       .debug_str     00000000 
000028a0 l       .debug_str     00000000 
000028c6 l       .debug_str     00000000 
000028ec l       .debug_str     00000000 
00002912 l       .debug_str     00000000 
00002938 l       .debug_str     00000000 
0000295c l       .debug_str     00000000 
00002980 l       .debug_str     00000000 
000029a5 l       .debug_str     00000000 
000029d4 l       .debug_str     00000000 
00002a03 l       .debug_str     00000000 
00002a32 l       .debug_str     00000000 
00002a61 l       .debug_str     00000000 
00002a90 l       .debug_str     00000000 
00002abf l       .debug_str     00000000 
00002aee l       .debug_str     00000000 
00002b1d l       .debug_str     00000000 
00002b4c l       .debug_str     00000000 
00002b6f l       .debug_str     00000000 
00002b92 l       .debug_str     00000000 
00002bb5 l       .debug_str     00000000 
00002bd8 l       .debug_str     00000000 
00002bfb l       .debug_str     00000000 
00002c1e l       .debug_str     00000000 
00002c43 l       .debug_str     00000000 
00002c73 l       .debug_str     00000000 
00002ca0 l       .debug_str     00000000 
00002ccd l       .debug_str     00000000 
00002cfa l       .debug_str     00000000 
00002d27 l       .debug_str     00000000 
00002d55 l       .debug_str     00000000 
00002ded l       .debug_str     00000000 
00002dc8 l       .debug_str     00000000 
00002dda l       .debug_str     00000000 
00002dfb l       .debug_str     00000000 
00002e01 l       .debug_str     00000000 
00002e0a l       .debug_str     00000000 
00002e14 l       .debug_str     00000000 
00002e18 l       .debug_str     00000000 
00002e29 l       .debug_str     00000000 
00003207 l       .debug_str     00000000 
00002e2e l       .debug_str     00000000 
0000068d l       .debug_str     00000000 
00002e3f l       .debug_str     00000000 
00002e49 l       .debug_str     00000000 
00002e4f l       .debug_str     00000000 
00002e59 l       .debug_str     00000000 
000004e6 l       .debug_str     00000000 
00002e6b l       .debug_str     00000000 
00002e60 l       .debug_str     00000000 
00000178 l       .debug_frame   00000000 
e000031a l       .text  00000000 
00000000 l    df *ABS*  00000000 uart.c
e000031a l       .text  00000000 
e000031a l       .text  00000000 
e000031a l       .text  00000000 
e000031e l       .text  00000000 
e000031e l       .text  00000000 
e0000324 l       .text  00000000 
e0000324 l       .text  00000000 
e0000326 l       .text  00000000 
e0000326 l       .text  00000000 
e000032a l       .text  00000000 
e000032a l       .text  00000000 
e000032e l       .text  00000000 
e000032e l       .text  00000000 
e0000334 l       .text  00000000 
e0000334 l       .text  00000000 
e0000336 l       .text  00000000 
e0000336 l       .text  00000000 
e0000338 l       .text  00000000 
e0000338 l       .text  00000000 
e000033c l       .text  00000000 
e000033c l       .text  00000000 
e000033e l       .text  00000000 
e000033e l       .text  00000000 
e0000342 l       .text  00000000 
e0000342 l       .text  00000000 
e0000346 l       .text  00000000 
e0000346 l       .text  00000000 
e0000348 l       .text  00000000 
e0000348 l       .text  00000000 
e0000348 l       .text  00000000 
e0000348 l       .text  00000000 
e0000348 l       .text  00000000 
e000034c l       .text  00000000 
e000034c l       .text  00000000 
e000034e l       .text  00000000 
e000034e l       .text  00000000 
e0000350 l       .text  00000000 
e0000350 l       .text  00000000 
e0000352 l       .text  00000000 
e0000352 l       .text  00000000 
e000035a l       .text  00000000 
e000035a l       .text  00000000 
e000035c l       .text  00000000 
e000035c l       .text  00000000 
e000035e l       .text  00000000 
e000035e l       .text  00000000 
e0000360 l       .text  00000000 
e0000360 l       .text  00000000 
e0000362 l       .text  00000000 
e0000364 l       .text  00000000 
e0000364 l       .text  00000000 
00000b1b l       .debug_loc     00000000 
00000b36 l       .debug_loc     00000000 
00000b52 l       .debug_loc     00000000 
00000b79 l       .debug_loc     00000000 
00000b9e l       .debug_loc     00000000 
00000bc5 l       .debug_loc     00000000 
00000be7 l       .debug_loc     00000000 
00000c02 l       .debug_loc     00000000 
00000c1d l       .debug_loc     00000000 
00000c38 l       .debug_loc     00000000 
00000c53 l       .debug_loc     00000000 
00000c6e l       .debug_loc     00000000 
00000c9f l       .debug_loc     00000000 
00000cc5 l       .debug_loc     00000000 
00000ce0 l       .debug_loc     00000000 
00000cfb l       .debug_loc     00000000 
00000d16 l       .debug_loc     00000000 
00000d31 l       .debug_loc     00000000 
00000d4c l       .debug_loc     00000000 
00000d72 l       .debug_loc     00000000 
00000d98 l       .debug_loc     00000000 
00000db3 l       .debug_loc     00000000 
00000dce l       .debug_loc     00000000 
00000000 l       .debug_str     00000000 
00002e78 l       .debug_str     00000000 
000000ab l       .debug_str     00000000 
00000198 l       .debug_ranges  00000000 
000004ce l       .debug_str     00000000 
000000ba l       .debug_str     00000000 
000000c3 l       .debug_str     00000000 
000000d1 l       .debug_str     00000000 
000000f2 l       .debug_str     00000000 
00000108 l       .debug_str     00000000 
00000124 l       .debug_str     00000000 
00000139 l       .debug_str     00000000 
00000155 l       .debug_str     00000000 
00000171 l       .debug_str     00000000 
00000185 l       .debug_str     00000000 
00000199 l       .debug_str     00000000 
000001ae l       .debug_str     00000000 
000001c7 l       .debug_str     00000000 
000001db l       .debug_str     00000000 
000001ef l       .debug_str     00000000 
000001ff l       .debug_str     00000000 
00000212 l       .debug_str     00000000 
0000022c l       .debug_str     00000000 
00000243 l       .debug_str     00000000 
0000025d l       .debug_str     00000000 
00000279 l       .debug_str     00000000 
00000295 l       .debug_str     00000000 
000002ac l       .debug_str     00000000 
000002c2 l       .debug_str     00000000 
000002da l       .debug_str     00000000 
000002f2 l       .debug_str     00000000 
0000030b l       .debug_str     00000000 
00000324 l       .debug_str     00000000 
0000033d l       .debug_str     00000000 
00000356 l       .debug_str     00000000 
00000375 l       .debug_str     00000000 
00000393 l       .debug_str     00000000 
000003ad l       .debug_str     00000000 
000003c6 l       .debug_str     00000000 
000003e2 l       .debug_str     00000000 
00000400 l       .debug_str     00000000 
0000041c l       .debug_str     00000000 
00000438 l       .debug_str     00000000 
00000454 l       .debug_str     00000000 
0000046b l       .debug_str     00000000 
00000484 l       .debug_str     00000000 
0000049a l       .debug_str     00000000 
000004b9 l       .debug_str     00000000 
00003020 l       .debug_str     00000000 
00002ea5 l       .debug_str     00000000 
00000520 l       .debug_str     00000000 
00002e01 l       .debug_str     00000000 
00002e18 l       .debug_str     00000000 
00002e29 l       .debug_str     00000000 
00003207 l       .debug_str     00000000 
00002ead l       .debug_str     00000000 
0000068d l       .debug_str     00000000 
00002eb8 l       .debug_str     00000000 
00002ecf l       .debug_str     00000000 
00002ed2 l       .debug_str     00000000 
00002eee l       .debug_str     00000000 
00002edd l       .debug_str     00000000 
00002ed8 l       .debug_str     00000000 
00002f1a l       .debug_str     00000000 
00002f01 l       .debug_str     00000000 
00002f16 l       .debug_str     00000000 
00002f20 l       .debug_str     00000000 
00002f37 l       .debug_str     00000000 
000004f2 l       .debug_str     00000000 
00002fa7 l       .debug_str     00000000 
00002f3d l       .debug_str     00000000 
00002f4d l       .debug_str     00000000 
00002f5a l       .debug_str     00000000 
00002f6e l       .debug_str     00000000 
00000513 l       .debug_str     00000000 
00002f7b l       .debug_str     00000000 
00002f80 l       .debug_str     00000000 
00002f92 l       .debug_str     00000000 
0000067f l       .debug_str     00000000 
00002f97 l       .debug_str     00000000 
00002f8b l       .debug_str     00000000 
00002f9d l       .debug_str     00000000 
00002fb9 l       .debug_str     00000000 
00000507 l       .debug_str     00000000 
00000529 l       .debug_str     00000000 
000001a4 l       .debug_frame   00000000 
e0000348 l       .text  00000000 
e0000364 l       .text  00000000 
00000000 l    df *ABS*  00000000 otp.c
e0000364 l       .text  00000000 
e0000364 l       .text  00000000 
e0000364 l       .text  00000000 
e0000368 l       .text  00000000 
e000036a l       .text  00000000 
e000036a l       .text  00000000 
e000036c l       .text  00000000 
e000036c l       .text  00000000 
e000036c l       .text  00000000 
00000de9 l       .debug_loc     00000000 
00000e04 l       .debug_loc     00000000 
00000e1f l       .debug_loc     00000000 
00000e3d l       .debug_loc     00000000 
00000e79 l       .debug_loc     00000000 
00000e94 l       .debug_loc     00000000 
00000eba l       .debug_loc     00000000 
00000ee0 l       .debug_loc     00000000 
00000efe l       .debug_loc     00000000 
00000000 l       .debug_str     00000000 
00002fbe l       .debug_str     00000000 
000000ab l       .debug_str     00000000 
000001c0 l       .debug_ranges  00000000 
00002dfb l       .debug_str     00000000 
00003020 l       .debug_str     00000000 
00002e60 l       .debug_str     00000000 
0000305b l       .debug_str     00000000 
00002fea l       .debug_str     00000000 
0000300b l       .debug_str     00000000 
00003063 l       .debug_str     00000000 
00003207 l       .debug_str     00000000 
00003036 l       .debug_str     00000000 
00002f92 l       .debug_str     00000000 
0000306e l       .debug_str     00000000 
00000f58 l       .debug_str     00000000 
0000303f l       .debug_str     00000000 
00002ffa l       .debug_str     00000000 
00002e01 l       .debug_str     00000000 
0000302d l       .debug_str     00000000 
00003016 l       .debug_str     00000000 
00002f8b l       .debug_str     00000000 
000001f8 l       .debug_frame   00000000 
e000036c l       .text  00000000 
00000000 l    df *ABS*  00000000 sec_mmio.c
e000036c l       .text  00000000 
e000036c l       .text  00000000 
e000036c l       .text  00000000 
e000036c l       .text  00000000 
e000036e l       .text  00000000 
e000036e l       .text  00000000 
e0000370 l       .text  00000000 
e0000370 l       .text  00000000 
e0000372 l       .text  00000000 
e0000372 l       .text  00000000 
e0000374 l       .text  00000000 
e0000374 l       .text  00000000 
e0000374 l       .text  00000000 
e0000374 l       .text  00000000 
e000037c l       .text  00000000 
e000037e l       .text  00000000 
e000037e l       .text  00000000 
e000037e l       .text  00000000 
e000037e l       .text  00000000 
e0000380 l       .text  00000000 
e0000380 l       .text  00000000 
e0000380 l       .text  00000000 
e0000380 l       .text  00000000 
e0000382 l       .text  00000000 
e0000382 l       .text  00000000 
e0000382 l       .text  00000000 
e0000382 l       .text  00000000 
e000038a l       .text  00000000 
e000038a l       .text  00000000 
e0000392 l       .text  00000000 
e0000394 l       .text  00000000 
e0000394 l       .text  00000000 
e0000396 l       .text  00000000 
e0000398 l       .text  00000000 
e000039a l       .text  00000000 
e000039a l       .text  00000000 
e00003a2 l       .text  00000000 
e00003a4 l       .text  00000000 
e00003a4 l       .text  00000000 
e00003a6 l       .text  00000000 
e00003a6 l       .text  00000000 
e00003a8 l       .text  00000000 
e00003aa l       .text  00000000 
e00003b8 l       .text  00000000 
e00003b8 l       .text  00000000 
e00003c4 l       .text  00000000 
e00003c6 l       .text  00000000 
e00003c6 l       .text  00000000 
e00003c6 l       .text  00000000 
e00003c6 l       .text  00000000 
e00003c6 l       .text  00000000 
e00003c8 l       .text  00000000 
e00003d2 l       .text  00000000 
e00003d4 l       .text  00000000 
e00003d4 l       .text  00000000 
e00003d8 l       .text  00000000 
e00003d8 l       .text  00000000 
e00003e0 l       .text  00000000 
e00003e0 l       .text  00000000 
e00003e4 l       .text  00000000 
e00003e4 l       .text  00000000 
e00003e4 l       .text  00000000 
e00003e4 l       .text  00000000 
e000040c l     F .text  0000006e upsert_register
e00003ea l       .text  00000000 
e00003ea l       .text  00000000 
e00003ec l       .text  00000000 
e00003ec l       .text  00000000 
e00003fc l       .text  00000000 
e0000402 l       .text  00000000 
e0000404 l       .text  00000000 
e0000406 l       .text  00000000 
e000040c l       .text  00000000 
e000040c l       .text  00000000 
e000040c l       .text  00000000 
e000040c l       .text  00000000 
e000040c l       .text  00000000 
e000040c l       .text  00000000 
e0000418 l       .text  00000000 
e0000418 l       .text  00000000 
e000041a l       .text  00000000 
e000041a l       .text  00000000 
e000041c l       .text  00000000 
e000041c l       .text  00000000 
e0000420 l       .text  00000000 
e0000420 l       .text  00000000 
e0000424 l       .text  00000000 
e0000424 l       .text  00000000 
e000042c l       .text  00000000 
e0000430 l       .text  00000000 
e0000432 l       .text  00000000 
e0000432 l       .text  00000000 
e0000434 l       .text  00000000 
e0000434 l       .text  00000000 
e000043c l       .text  00000000 
e000043c l       .text  00000000 
e000043e l       .text  00000000 
e000043e l       .text  00000000 
e0000440 l       .text  00000000 
e0000440 l       .text  00000000 
e0000444 l       .text  00000000 
e0000444 l       .text  00000000 
e0000446 l       .text  00000000 
e0000446 l       .text  00000000 
e000044a l       .text  00000000 
e000044a l       .text  00000000 
e000044e l       .text  00000000 
e000044e l       .text  00000000 
e0000458 l       .text  00000000 
e000045c l       .text  00000000 
e000045e l       .text  00000000 
e0000462 l       .text  00000000 
e0000468 l       .text  00000000 
e000046c l       .text  00000000 
e0000478 l       .text  00000000 
e000047a l       .text  00000000 
e000047a l       .text  00000000 
00000f1a l       .debug_loc     00000000 
00000f41 l       .debug_loc     00000000 
00000f68 l       .debug_loc     00000000 
00000f8f l       .debug_loc     00000000 
00000fca l       .debug_loc     00000000 
00000ff9 l       .debug_loc     00000000 
00001014 l       .debug_loc     00000000 
0000103a l       .debug_loc     00000000 
00001055 l       .debug_loc     00000000 
00001070 l       .debug_loc     00000000 
0000108b l       .debug_loc     00000000 
000010c8 l       .debug_loc     00000000 
000010ef l       .debug_loc     00000000 
0000110a l       .debug_loc     00000000 
00001130 l       .debug_loc     00000000 
00001156 l       .debug_loc     00000000 
0000117c l       .debug_loc     00000000 
00001197 l       .debug_loc     00000000 
000011b2 l       .debug_loc     00000000 
000011d8 l       .debug_loc     00000000 
000011f3 l       .debug_loc     00000000 
0000120e l       .debug_loc     00000000 
00001229 l       .debug_loc     00000000 
00001266 l       .debug_loc     00000000 
0000128d l       .debug_loc     00000000 
000012a8 l       .debug_loc     00000000 
000012c3 l       .debug_loc     00000000 
000012de l       .debug_loc     00000000 
000012f9 l       .debug_loc     00000000 
00000000 l       .debug_str     00000000 
000030f8 l       .debug_str     00000000 
000000ab l       .debug_str     00000000 
000002a8 l       .debug_ranges  00000000 
000030b6 l       .debug_str     00000000 
000030e9 l       .debug_str     00000000 
000030c3 l       .debug_str     00000000 
000030d7 l       .debug_str     00000000 
000030ce l       .debug_str     00000000 
00003216 l       .debug_str     00000000 
000031cb l       .debug_str     00000000 
000030e3 l       .debug_str     00000000 
00002e01 l       .debug_str     00000000 
00003020 l       .debug_str     00000000 
0000056c l       .debug_str     00000000 
00003126 l       .debug_str     00000000 
00003136 l       .debug_str     00000000 
00003146 l       .debug_str     00000000 
000031bc l       .debug_str     00000000 
00003155 l       .debug_str     00000000 
000031f7 l       .debug_str     00000000 
00000f58 l       .debug_str     00000000 
000031fb l       .debug_str     00000000 
00000278 l       .debug_ranges  00000000 
00000290 l       .debug_ranges  00000000 
00003202 l       .debug_str     00000000 
0000315b l       .debug_str     00000000 
0000302d l       .debug_str     00000000 
00003016 l       .debug_str     00000000 
00002e0a l       .debug_str     00000000 
00002e14 l       .debug_str     00000000 
000004d8 l       .debug_str     00000000 
0000069d l       .debug_str     00000000 
000001e8 l       .debug_ranges  00000000 
00000200 l       .debug_ranges  00000000 
00000218 l       .debug_ranges  00000000 
00000230 l       .debug_ranges  00000000 
00003179 l       .debug_str     00000000 
00000248 l       .debug_ranges  00000000 
00002f3d l       .debug_str     00000000 
00002e29 l       .debug_str     00000000 
0000316f l       .debug_str     00000000 
00002fea l       .debug_str     00000000 
00003207 l       .debug_str     00000000 
000031ea l       .debug_str     00000000 
00003192 l       .debug_str     00000000 
00000260 l       .debug_ranges  00000000 
00002e18 l       .debug_str     00000000 
00002ffa l       .debug_str     00000000 
000031a2 l       .debug_str     00000000 
000031d2 l       .debug_str     00000000 
0000320d l       .debug_str     00000000 
00003222 l       .debug_str     00000000 
00002f8b l       .debug_str     00000000 
00000264 l       .debug_frame   00000000 
e00003c6 l       .text  00000000 
e000040c l       .text  00000000 
e000047a l       .text  00000000 
00000000 l    df *ABS*  00000000 device_sim_verilator.c
0000131f l       .debug_loc     00000000 
00000000 l       .debug_str     00000000 
00003229 l       .debug_str     00000000 
000000ab l       .debug_str     00000000 
000002f0 l       .debug_ranges  00000000 
00003253 l       .debug_str     00000000 
000032b3 l       .debug_str     00000000 
000032a7 l       .debug_str     00000000 
0000325f l       .debug_str     00000000 
0000326c l       .debug_str     00000000 
00003280 l       .debug_str     00000000 
00003291 l       .debug_str     00000000 
00003020 l       .debug_str     00000000 
000032c1 l       .debug_str     00000000 
0000302d l       .debug_str     00000000 
00003016 l       .debug_str     00000000 
000032d1 l       .debug_str     00000000 
000032ef l       .debug_str     00000000 
00003306 l       .debug_str     00000000 
00003316 l       .debug_str     00000000 
00003326 l       .debug_str     00000000 
00003334 l       .debug_str     00000000 
00002e01 l       .debug_str     00000000 
00003342 l       .debug_str     00000000 
00003357 l       .debug_str     00000000 
0000336e l       .debug_str     00000000 
00003387 l       .debug_str     00000000 
00003391 l       .debug_str     00000000 
000033ad l       .debug_str     00000000 
00002f37 l       .debug_str     00000000 
000033bc l       .debug_str     00000000 
000033e4 l       .debug_str     00000000 
000033ca l       .debug_str     00000000 
00000320 l       .debug_frame   00000000 
00000000 l    df *ABS*  00000000 static_critical_sec_mmio.c
00000000 l       .debug_str     00000000 
00003078 l       .debug_str     00000000 
000000ab l       .debug_str     00000000 
000030b6 l       .debug_str     00000000 
000030e9 l       .debug_str     00000000 
000030c3 l       .debug_str     00000000 
000030d7 l       .debug_str     00000000 
000030ce l       .debug_str     00000000 
00003216 l       .debug_str     00000000 
000031cb l       .debug_str     00000000 
000030e3 l       .debug_str     00000000 
00002e01 l       .debug_str     00000000 
00003020 l       .debug_str     00000000 
0000056c l       .debug_str     00000000 
e00003c6 g     F .text  00000046 sec_mmio_read32
e000017a g     F .text  0000007a external_irq_handler
00008000 g       *ABS*  00000000 _stack_len
e00023f0 g       .bss   00000000 _bss_start
e000a000 g       .stack 00000000 stack
e0000080 g       *ABS*  00000000 _entry_point
e00023f0 g       .bss   00000000 _bss_end
e0000364 g     F .text  00000008 otp_read32
e000031a g     F .text  0000002e uart_init
e000036c g     F .text  0000005a sec_mmio_init
e00000cc g       .text  00000000 _start
e00004a0 g     O .static_critical.sec_mmio_ctx  00001f50 sec_mmio_ctx
e0000104 g     F .text  00000076 main
e000049c g     O .rodata        00000004 kUartNCOValue
e0000084 g       .vectors       00000000 _vectors_end
e0010000 g       .vectors       00000000 _stack_start
00002000 g       *ABS*  00000000 _min_stack
e0010010 g       *ABS*  00000000 fromhost
00020008 g       *ABS*  00000000 tohost
e00001f4 g     F .text  000000c8 rom_printf
e000a000 g       .stack 00000000 _stack
e0000000 g       .vectors       00000000 _vectors_start
e00002bc g     F .text  0000005e pinmux_init
e0000348 g     F .text  0000001c uart_putchar



Disassembly of section .vectors:

e0000000 <_vectors_start>:
e0000000:       0840006f                j       e0000084 <_vectors_end>
e0000004:       0800006f                j       e0000084 <_vectors_end>
e0000008:       07c0006f                j       e0000084 <_vectors_end>
e000000c:       0780006f                j       e0000084 <_vectors_end>
e0000010:       0740006f                j       e0000084 <_vectors_end>
e0000014:       0700006f                j       e0000084 <_vectors_end>
e0000018:       06c0006f                j       e0000084 <_vectors_end>
e000001c:       0680006f                j       e0000084 <_vectors_end>
e0000020:       0640006f                j       e0000084 <_vectors_end>
e0000024:       0600006f                j       e0000084 <_vectors_end>
e0000028:       05c0006f                j       e0000084 <_vectors_end>
e000002c:       14e0006f                j       e000017a <external_irq_handler>
e0000030:       0540006f                j       e0000084 <_vectors_end>
e0000034:       0500006f                j       e0000084 <_vectors_end>
e0000038:       04c0006f                j       e0000084 <_vectors_end>
e000003c:       0480006f                j       e0000084 <_vectors_end>
e0000040:       0440006f                j       e0000084 <_vectors_end>
e0000044:       0400006f                j       e0000084 <_vectors_end>
e0000048:       03c0006f                j       e0000084 <_vectors_end>
e000004c:       0380006f                j       e0000084 <_vectors_end>
e0000050:       0340006f                j       e0000084 <_vectors_end>
e0000054:       0300006f                j       e0000084 <_vectors_end>
e0000058:       02c0006f                j       e0000084 <_vectors_end>
e000005c:       0280006f                j       e0000084 <_vectors_end>
e0000060:       0240006f                j       e0000084 <_vectors_end>
e0000064:       0200006f                j       e0000084 <_vectors_end>
e0000068:       01c0006f                j       e0000084 <_vectors_end>
e000006c:       0180006f                j       e0000084 <_vectors_end>
e0000070:       0140006f                j       e0000084 <_vectors_end>
e0000074:       0100006f                j       e0000084 <_vectors_end>
e0000078:       00c0006f                j       e0000084 <_vectors_end>
e000007c:       0080006f                j       e0000084 <_vectors_end>
e0000080:       0060006f                j       e0000086 <reset_handler>

Disassembly of section .text:

e0000084 <default_exc_handler>:
default_exc_handler():
e0000084:       a8ad                    j       e00000fe <sleep_loop>

e0000086 <reset_handler>:
reset_handler():
e0000086:       4081                    li      ra,0
e0000088:       8106                    mv      sp,ra
e000008a:       8186                    mv      gp,ra
e000008c:       8206                    mv      tp,ra
e000008e:       8286                    mv      t0,ra
e0000090:       8306                    mv      t1,ra
e0000092:       8386                    mv      t2,ra
e0000094:       8406                    mv      s0,ra
e0000096:       8486                    mv      s1,ra
e0000098:       8506                    mv      a0,ra
e000009a:       8586                    mv      a1,ra
e000009c:       8606                    mv      a2,ra
e000009e:       8686                    mv      a3,ra
e00000a0:       8706                    mv      a4,ra
e00000a2:       8786                    mv      a5,ra
e00000a4:       8806                    mv      a6,ra
e00000a6:       8886                    mv      a7,ra
e00000a8:       8906                    mv      s2,ra
e00000aa:       8986                    mv      s3,ra
e00000ac:       8a06                    mv      s4,ra
e00000ae:       8a86                    mv      s5,ra
e00000b0:       8b06                    mv      s6,ra
e00000b2:       8b86                    mv      s7,ra
e00000b4:       8c06                    mv      s8,ra
e00000b6:       8c86                    mv      s9,ra
e00000b8:       8d06                    mv      s10,ra
e00000ba:       8d86                    mv      s11,ra
e00000bc:       8e06                    mv      t3,ra
e00000be:       8e86                    mv      t4,ra
e00000c0:       8f06                    mv      t5,ra
e00000c2:       8f86                    mv      t6,ra
e00000c4:       00010117                auipc   sp,0x10
e00000c8:       f3c10113                addi    sp,sp,-196 # e0010000 <_stack_start>

e00000cc <_start>:
e00000cc:       00002d17                auipc   s10,0x2
e00000d0:       324d0d13                addi    s10,s10,804 # e00023f0 <_bss_end>
e00000d4:       00002d97                auipc   s11,0x2
e00000d8:       31cd8d93                addi    s11,s11,796 # e00023f0 <_bss_end>
e00000dc:       01bd5763                bge     s10,s11,e00000ea <main_entry>

e00000e0 <zero_loop>:
zero_loop():
e00000e0:       /-> 000d2023            sw      zero,0(s10)
e00000e4:       |   0d11                        addi    s10,s10,4
e00000e6:       \-- ffaddde3            bge     s11,s10,e00000e0 <zero_loop>

e00000ea <main_entry>:
zero_loop_end():
e00000ea:       4501                    li      a0,0
e00000ec:       4581                    li      a1,0
e00000ee:       016000ef                jal     ra,e0000104 <main>
e00000f2:       c11c0537                lui     a0,0xc11c0
e00000f6:       0561                    addi    a0,a0,24
e00000f8:       4285                    li      t0,1
e00000fa:       00552023                sw      t0,0(a0) # c11c0000 <fromhost+0xe11afff0>

e00000fe <sleep_loop>:
sleep_loop():
e00000fe:       /-> 10500073            wfi
e0000102:       \-- bff5                        j       e00000fe <sleep_loop>

e0000104 <main>:
main():
/proc/self/cwd/sw/tests/opentitan/sram_hello_world/sram_hello_world.c:59
#include "sw/device/lib/base/mmio.h"
#include "sw/device/lib/testing/rand_testutils.h"

#define TARGET_SYNTHESIS

int main(int argc, char **argv) {
e0000104:       1141                    addi    sp,sp,-16
/proc/self/cwd/sw/tests/opentitan/sram_hello_world/sram_hello_world.c:61

  sec_mmio_init();
e0000106:       c606                    sw      ra,12(sp)
e0000108:       2495                    jal     e000036c <sec_mmio_init>
/proc/self/cwd/sw/tests/opentitan/sram_hello_world/sram_hello_world.c:62
  pinmux_init();
e000010a:       2a4d                    jal     e00002bc <pinmux_init>
/proc/self/cwd/sw/tests/opentitan/sram_hello_world/sram_hello_world.c:63
  uart_init(kUartNCOValue);
e000010c:       00000517                auipc   a0,0x0
e0000110:       39050513                addi    a0,a0,912 # e000049c <kUartNCOValue>
e0000114:       4108                    lw      a0,0(a0)
e0000116:       2411                    jal     e000031a <uart_init>
/proc/self/cwd/sw/tests/opentitan/sram_hello_world/sram_hello_world.c:65
  
  rom_printf("Hello World!\r\n");
e0000118:       00000517                auipc   a0,0x0
e000011c:       36450513                addi    a0,a0,868 # e000047c <upsert_register+0x70>
e0000120:       28d1                    jal     e00001f4 <rom_printf>
/proc/self/cwd/sw/tests/opentitan/sram_hello_world/sram_hello_world.c:67
  
  uart_putchar('h');
e0000122:       06800513                li      a0,104
e0000126:       240d                    jal     e0000348 <uart_putchar>
/proc/self/cwd/sw/tests/opentitan/sram_hello_world/sram_hello_world.c:68
  uart_putchar('e');
e0000128:       06500513                li      a0,101
e000012c:       2c31                    jal     e0000348 <uart_putchar>
/proc/self/cwd/sw/tests/opentitan/sram_hello_world/sram_hello_world.c:69
  uart_putchar('l');
e000012e:       06c00513                li      a0,108
e0000132:       2c19                    jal     e0000348 <uart_putchar>
/proc/self/cwd/sw/tests/opentitan/sram_hello_world/sram_hello_world.c:70
  uart_putchar('l');
e0000134:       06c00513                li      a0,108
e0000138:       2c01                    jal     e0000348 <uart_putchar>
/proc/self/cwd/sw/tests/opentitan/sram_hello_world/sram_hello_world.c:71
  uart_putchar('o');
e000013a:       06f00513                li      a0,111
e000013e:       2429                    jal     e0000348 <uart_putchar>
/proc/self/cwd/sw/tests/opentitan/sram_hello_world/sram_hello_world.c:72
  uart_putchar(' ');
e0000140:       02000513                li      a0,32
e0000144:       2411                    jal     e0000348 <uart_putchar>
/proc/self/cwd/sw/tests/opentitan/sram_hello_world/sram_hello_world.c:73
  uart_putchar('w');
e0000146:       07700513                li      a0,119
e000014a:       2afd                    jal     e0000348 <uart_putchar>
/proc/self/cwd/sw/tests/opentitan/sram_hello_world/sram_hello_world.c:74
  uart_putchar('o');
e000014c:       06f00513                li      a0,111
e0000150:       2ae5                    jal     e0000348 <uart_putchar>
/proc/self/cwd/sw/tests/opentitan/sram_hello_world/sram_hello_world.c:75
  uart_putchar('r');
e0000152:       07200513                li      a0,114
e0000156:       2acd                    jal     e0000348 <uart_putchar>
/proc/self/cwd/sw/tests/opentitan/sram_hello_world/sram_hello_world.c:76
  uart_putchar('l');
e0000158:       06c00513                li      a0,108
e000015c:       22f5                    jal     e0000348 <uart_putchar>
/proc/self/cwd/sw/tests/opentitan/sram_hello_world/sram_hello_world.c:77
  uart_putchar('d');
e000015e:       06400513                li      a0,100
e0000162:       22dd                    jal     e0000348 <uart_putchar>
/proc/self/cwd/sw/tests/opentitan/sram_hello_world/sram_hello_world.c:78
  uart_putchar('!');
e0000164:       02100513                li      a0,33
e0000168:       22c5                    jal     e0000348 <uart_putchar>
/proc/self/cwd/sw/tests/opentitan/sram_hello_world/sram_hello_world.c:79
  uart_putchar('\r');
e000016a:       4535                    li      a0,13
e000016c:       2af1                    jal     e0000348 <uart_putchar>
/proc/self/cwd/sw/tests/opentitan/sram_hello_world/sram_hello_world.c:80
  uart_putchar('\n');
e000016e:       4529                    li      a0,10
e0000170:       2ae1                    jal     e0000348 <uart_putchar>
/proc/self/cwd/sw/tests/opentitan/sram_hello_world/sram_hello_world.c:82

  return 0;
e0000172:       4501                    li      a0,0
e0000174:       40b2                    lw      ra,12(sp)
e0000176:       0141                    addi    sp,sp,16
e0000178:       8082                    ret

e000017a <external_irq_handler>:
external_irq_handler():
/proc/self/cwd/sw/tests/opentitan/common/utils.c:338
  putchar('\n');

  return i;
}

void external_irq_handler(void)  {
e000017a:           1101                        addi    sp,sp,-32
e000017c:           ce2a                        sw      a0,28(sp)
e000017e:           cc2e                        sw      a1,24(sp)
e0000180:           ca32                        sw      a2,20(sp)
e0000182:           c836                        sw      a3,16(sp)
e0000184:           c63a                        sw      a4,12(sp)
e0000186:           c43e                        sw      a5,8(sp)
e0000188:           c242                        sw      a6,4(sp)
e000018a:           c8200537            lui     a0,0xc8200
e000018e:           09f00593            li      a1,159
/proc/self/cwd/sw/tests/opentitan/common/utils.c:355
  p_reg5 = (int *) 0x1040401C;

  // start of """Interrupt Service Routine"""
  
  plic_check = (int *) 0xC8200004;
  while(*plic_check != mbox_id);   //check wether the intr is the correct one
e0000192:       /-> 4150                        lw      a2,4(a0)
e0000194:       \-- feb61fe3            bne     a2,a1,e0000192 <external_irq_handler+0x18>
e0000198:           10404537            lui     a0,0x10404
/proc/self/cwd/sw/tests/opentitan/common/utils.c:358
  
  p_reg = (int *) 0x10404020;
 *p_reg = 0x00000000;        //clearing the pending interrupt signal
e000019c:           02052023            sw      zero,32(a0) # 10404020 <tohost+0x103e4018>
e00001a0:           c82005b7            lui     a1,0xc8200
e00001a4:           09f00613            li      a2,159
/proc/self/cwd/sw/tests/opentitan/common/utils.c:360
 
 *plic_check = mbox_id;      //completing interrupt
e00001a8:           c1d0                        sw      a2,4(a1)
/proc/self/cwd/sw/tests/opentitan/common/utils.c:362
 
  a = *p_reg1;
e00001aa:           450c                        lw      a1,8(a0)
/proc/self/cwd/sw/tests/opentitan/common/utils.c:363
  b = *p_reg2;
e00001ac:           4910                        lw      a2,16(a0)
/proc/self/cwd/sw/tests/opentitan/common/utils.c:364
  c = *p_reg3;
e00001ae:           4954                        lw      a3,20(a0)
/proc/self/cwd/sw/tests/opentitan/common/utils.c:365
  d = *p_reg4;
e00001b0:           4d18                        lw      a4,24(a0)
/proc/self/cwd/sw/tests/opentitan/common/utils.c:366
  e = *p_reg5;
e00001b2:           01c52803            lw      a6,28(a0)
e00001b6:           baadc7b7            lui     a5,0xbaadc
e00001ba:           0de78793            addi    a5,a5,222 # baadc0de <fromhost+0xdaacc0ce>
/proc/self/cwd/sw/tests/opentitan/common/utils.c:369
  
  
  if( a == 0xBAADC0DE &&  b == 0xBAADC0DE && c == 0xBAADC0DE && d == 0xBAADC0DE && e == 0xBAADC0DE){
e00001be:           8dbd                        xor     a1,a1,a5
e00001c0:           8e3d                        xor     a2,a2,a5
e00001c2:           8dd1                        or      a1,a1,a2
e00001c4:           00f6c633            xor     a2,a3,a5
e00001c8:           8dd1                        or      a1,a1,a2
e00001ca:           00f74633            xor     a2,a4,a5
e00001ce:           8dd1                        or      a1,a1,a2
e00001d0:           00f84633            xor     a2,a6,a5
e00001d4:           8dd1                        or      a1,a1,a2
e00001d6:       /-- e589                        bnez    a1,e00001e0 <external_irq_handler+0x66>
e00001d8:       |   02450513            addi    a0,a0,36
e00001dc:       |   4585                        li      a1,1
/proc/self/cwd/sw/tests/opentitan/common/utils.c:371
      p_reg = (int *) 0x10404024; // completion interrupt to ariane agent
     *p_reg = 0x00000001;
e00001de:       |   c10c                        sw      a1,0(a0)
/proc/self/cwd/sw/tests/opentitan/common/utils.c:375
  }
  
  return;
}
e00001e0:       \-> 4812                        lw      a6,4(sp)
e00001e2:           47a2                        lw      a5,8(sp)
e00001e4:           4732                        lw      a4,12(sp)
e00001e6:           46c2                        lw      a3,16(sp)
e00001e8:           4652                        lw      a2,20(sp)
e00001ea:           45e2                        lw      a1,24(sp)
e00001ec:           4572                        lw      a0,28(sp)
e00001ee:           6105                        addi    sp,sp,32
e00001f0:           30200073            mret

e00001f4 <rom_printf>:
rom_printf():
/proc/self/cwd/sw/device/silicon_creator/lib/rom_print.c:13
#include <stdarg.h>
#include <stdint.h>

#include "sw/device/silicon_creator/lib/drivers/uart.h"

rom_error_t rom_printf(const char *format, ...) {
e00001f4:                          715d                 addi    sp,sp,-80
e00001f6:                          d606                 sw      ra,44(sp)
e00001f8:                          d422                 sw      s0,40(sp)
e00001fa:                          d226                 sw      s1,36(sp)
e00001fc:                          d04a                 sw      s2,32(sp)
e00001fe:                          ce4e                 sw      s3,28(sp)
e0000200:                          cc52                 sw      s4,24(sp)
e0000202:                          ca56                 sw      s5,20(sp)
e0000204:                          c85a                 sw      s6,16(sp)
e0000206:                          c65e                 sw      s7,12(sp)
e0000208:                          84aa                 mv      s1,a0
e000020a:                          c6c6                 sw      a7,76(sp)
e000020c:                          c4c2                 sw      a6,72(sp)
e000020e:                          c2be                 sw      a5,68(sp)
e0000210:                          c0ba                 sw      a4,64(sp)
e0000212:                          de36                 sw      a3,60(sp)
e0000214:                          dc32                 sw      a2,56(sp)
e0000216:                          da2e                 sw      a1,52(sp)
e0000218:                          1848                 addi    a0,sp,52
/proc/self/cwd/sw/device/silicon_creator/lib/rom_print.c:15
  va_list args;
  va_start(args, format);
e000021a:                          c42a                 sw      a0,8(sp)
e000021c:                          02500a13             li      s4,37
e0000220:                          014c4537             lui     a0,0x14c4
e0000224:                          70d50913             addi    s2,a0,1805 # 14c470d <tohost+0x14a4705>
e0000228:                          07800993             li      s3,120
e000022c:                          00000b97             auipc   s7,0x0
e0000230:                          25fb8b93             addi    s7,s7,607 # e000048b <rom_printf.kHexTable>
e0000234:                          07300a93             li      s5,115
/proc/self/cwd/sw/device/silicon_creator/lib/rom_print.c:17

  while (*format != '\0') {
e0000238:       /----------------> 0004c503             lbu     a0,0(s1)
e000023c:       |              /-- 01450663             beq     a0,s4,e0000248 <rom_printf+0x54>
e0000240:       |  /-----------|-- c125                 beqz    a0,e00002a0 <rom_printf+0xac>
/proc/self/cwd/sw/device/silicon_creator/lib/rom_print.c:19
    if (*format != '%') {
      uart_putchar(*format++);
e0000242:       |  |           |   0485                 addi    s1,s1,1
e0000244:       |  |           |   2211                 jal     e0000348 <uart_putchar>
e0000246:       +--|-----------|-- bfcd                 j       e0000238 <rom_printf+0x44>
/proc/self/cwd/sw/device/silicon_creator/lib/rom_print.c:24
      continue;
    }

    ++format;  // Skip over the '%'.
    switch (*format++) {
e0000248:       |  |           \-> 0014c503             lbu     a0,1(s1)
e000024c:       |  |               00248b13             addi    s6,s1,2
e0000250:       |  |     /-------- 03350763             beq     a0,s3,e000027e <rom_printf+0x8a>
e0000254:       |  |  /--|-------- 05551863             bne     a0,s5,e00002a4 <rom_printf+0xb0>
/proc/self/cwd/sw/device/silicon_creator/lib/rom_print.c:27
      case 's': {
        // Print a null-terminated string.
        const char *str = va_arg(args, const char *);
e0000258:       |  |  |  |         4522                 lw      a0,8(sp)
e000025a:       |  |  |  |         00450593             addi    a1,a0,4
e000025e:       |  |  |  |         c42e                 sw      a1,8(sp)
e0000260:       |  |  |  |         410c                 lw      a1,0(a0)
/proc/self/cwd/sw/device/silicon_creator/lib/rom_print.c:28
        while (*str != '\0') {
e0000262:       |  |  |  |         0005c503             lbu     a0,0(a1)
e0000266:       |  |  |  |         84da                 mv      s1,s6
e0000268:       +--|--|--|-------- d961                 beqz    a0,e0000238 <rom_printf+0x44>
/proc/self/cwd/sw/device/silicon_creator/lib/rom_print.c:17
  while (*format != '\0') {
e000026a:       |  |  |  |         00158413             addi    s0,a1,1
/proc/self/cwd/sw/device/silicon_creator/lib/rom_print.c:29
          uart_putchar(*str++);
e000026e:       |  |  |  |     /-> 0ff57513             andi    a0,a0,255
e0000272:       |  |  |  |     |   28d9                 jal     e0000348 <uart_putchar>
/proc/self/cwd/sw/device/silicon_creator/lib/rom_print.c:28
        while (*str != '\0') {
e0000274:       |  |  |  |     |   00044503             lbu     a0,0(s0)
e0000278:       |  |  |  |     |   0405                 addi    s0,s0,1
e000027a:       |  |  |  |     \-- f975                 bnez    a0,e000026e <rom_printf+0x7a>
e000027c:       |  |  |  |  /----- a005                 j       e000029c <rom_printf+0xa8>
/proc/self/cwd/sw/device/silicon_creator/lib/rom_print.c:36
        break;
      }
      case 'x': {
        // Print an `unsigned int` in hexadecimal.
        static const char kHexTable[16] = "0123456789abcdef";
        unsigned int v = va_arg(args, unsigned int);
e000027e:       |  |  |  \--|----> 4522                 lw      a0,8(sp)
e0000280:       |  |  |     |      00450593             addi    a1,a0,4
e0000284:       |  |  |     |      c42e                 sw      a1,8(sp)
e0000286:       |  |  |     |      4104                 lw      s1,0(a0)
e0000288:       |  |  |     |      4421                 li      s0,8
/proc/self/cwd/sw/device/silicon_creator/lib/rom_print.c:39
        for (int i = 0; i < sizeof(v) * 2; ++i) {
          int shift = sizeof(v) * 8 - 4;
          uart_putchar(kHexTable[v >> shift]);
e000028a:       |  |  |     |  /-> 01c4d513             srli    a0,s1,0x1c
e000028e:       |  |  |     |  |   955e                 add     a0,a0,s7
e0000290:       |  |  |     |  |   00054503             lbu     a0,0(a0)
e0000294:       |  |  |     |  |   2855                 jal     e0000348 <uart_putchar>
/proc/self/cwd/sw/device/silicon_creator/lib/rom_print.c:37
        for (int i = 0; i < sizeof(v) * 2; ++i) {
e0000296:       |  |  |     |  |   147d                 addi    s0,s0,-1
/proc/self/cwd/sw/device/silicon_creator/lib/rom_print.c:40
          v <<= 4;
e0000298:       |  |  |     |  |   0492                 slli    s1,s1,0x4
/proc/self/cwd/sw/device/silicon_creator/lib/rom_print.c:37
        for (int i = 0; i < sizeof(v) * 2; ++i) {
e000029a:       |  |  |     |  \-- f865                 bnez    s0,e000028a <rom_printf+0x96>
e000029c:       |  |  |     \----> 84da                 mv      s1,s6
e000029e:       \--|--|----------- bf69                 j       e0000238 <rom_printf+0x44>
e00002a0:          \--|----------> 73900913             li      s2,1849
/proc/self/cwd/sw/device/silicon_creator/lib/rom_print.c:52
    }
  }

  va_end(args);
  return kErrorOk;
}
e00002a4:             \----------> 854a                 mv      a0,s2
e00002a6:                          4bb2                 lw      s7,12(sp)
e00002a8:                          4b42                 lw      s6,16(sp)
e00002aa:                          4ad2                 lw      s5,20(sp)
e00002ac:                          4a62                 lw      s4,24(sp)
e00002ae:                          49f2                 lw      s3,28(sp)
e00002b0:                          5902                 lw      s2,32(sp)
e00002b2:                          5492                 lw      s1,36(sp)
e00002b4:                          5422                 lw      s0,40(sp)
e00002b6:                          50b2                 lw      ra,44(sp)
e00002b8:                          6161                 addi    sp,sp,80
e00002ba:                          8082                 ret

e00002bc <pinmux_init>:
pinmux_init():
/proc/self/cwd/sw/device/silicon_creator/lib/drivers/pinmux.c:127
  abs_mmio_write32(
      kBase + PINMUX_MIO_OUTSEL_0_REG_OFFSET + output.mio * sizeof(uint32_t),
      output.outsel);
}

void pinmux_init(void) {
e00002bc:              1141                     addi    sp,sp,-16
/proc/self/cwd/sw/device/silicon_creator/lib/drivers/pinmux.c:129
  uint32_t bootstrap_en =
      otp_read32(OTP_CTRL_PARAM_OWNER_SW_CFG_ROM_BOOTSTRAP_EN_OFFSET);
e00002be:              c606                     sw      ra,12(sp)
e00002c0:              36400513                 li      a0,868
e00002c4:              2045                     jal     e0000364 <otp_read32>
launder32():
/proc/self/cwd/./sw/device/lib/base/hardened.h:244
  // > of statements.

  // The +r constraint tells the compiler that this is an "inout" parameter: it
  // means that not only does the black box depend on `val`, but it also mutates
  // it in an unspecified way.
  asm volatile("" : "+r"(val));
e00002c6:              862a                     mv      a2,a0
e00002c8:              73900593                 li      a1,1849
pinmux_init():
/proc/self/cwd/sw/device/silicon_creator/lib/drivers/pinmux.c:130
  if (launder32(bootstrap_en) == kHardenedBoolTrue) {
e00002cc:       /----- 02b61b63                 bne     a2,a1,e0000302 <pinmux_init+0x46>
/proc/self/cwd/sw/device/silicon_creator/lib/drivers/pinmux.c:131
    HARDENED_CHECK_EQ(bootstrap_en, kHardenedBoolTrue);
e00002d0:       |  /-- 00b50663                 beq     a0,a1,e00002dc <pinmux_init+0x20>
e00002d4:       |  |   0000                     unimp
e00002d6:       |  |   0000                     unimp
e00002d8:       |  |   0000                     unimp
e00002da:       |  |   0000                     unimp
e00002dc:       |  \-> c0460537                 lui     a0,0xc0460
e00002e0:       |      4591                     li      a1,4
abs_mmio_write32():
/proc/self/cwd/./sw/device/lib/base/abs_mmio.h:83
 *
 * @param addr the address to write to.
 * @param value the value to write.
 */
inline void abs_mmio_write32(uint32_t addr, uint32_t value) {
  *((volatile uint32_t *)addr) = value;
e00002e2:       |      44b52c23                 sw      a1,1112(a0) # c0460458 <fromhost+0xe0450448>
e00002e6:       |      44b52e23                 sw      a1,1116(a0)
e00002ea:       |      46b52023                 sw      a1,1120(a0)
e00002ee:       |      45e1                     li      a1,24
e00002f0:       |      14b52023                 sw      a1,320(a0)
e00002f4:       |      45e5                     li      a1,25
e00002f6:       |      14b52223                 sw      a1,324(a0)
e00002fa:       |      14850513                 addi    a0,a0,328
e00002fe:       |      45e9                     li      a1,26
e0000300:       |      c10c                     sw      a1,0(a0)
e0000302:       \----> c0460537                 lui     a0,0xc0460
e0000306:              45ed                     li      a1,27
e0000308:              18b52823                 sw      a1,400(a0) # c0460190 <fromhost+0xe0450180>
e000030c:              02d00593                 li      a1,45
e0000310:              2eb52823                 sw      a1,752(a0)
pinmux_init():
/proc/self/cwd/sw/device/silicon_creator/lib/drivers/pinmux.c:144
    configure_input(kInputSwStrap2);
  }

  configure_input(kInputUart0);
  configure_output(kOutputUart0);
}
e0000314:              40b2                     lw      ra,12(sp)
e0000316:              0141                     addi    sp,sp,16
e0000318:              8082                     ret

e000031a <uart_init>:
uart_init():
/proc/self/cwd/sw/device/silicon_creator/lib/drivers/uart.c:37
                   0u);
  abs_mmio_write32(TOP_EARLGREY_UART0_BASE_ADDR + UART_INTR_STATE_REG_OFFSET,
                   UINT32_MAX);
}

rom_error_t uart_init(uint32_t precalculated_nco) {
e000031a:       c00005b7                lui     a1,0xc0000
abs_mmio_write32():
/proc/self/cwd/./sw/device/lib/base/abs_mmio.h:83
e000031e:       0005a823                sw      zero,16(a1) # c0000010 <fromhost+0xdfff0000>
e0000322:       460d                    li      a2,3
e0000324:       d190                    sw      a2,32(a1)
e0000326:       0205a423                sw      zero,40(a1)
e000032a:       0205a823                sw      zero,48(a1)
e000032e:       0005a223                sw      zero,4(a1)
e0000332:       567d                    li      a2,-1
e0000334:       c190                    sw      a2,0(a1)
bitfield_field32_write():
/proc/self/cwd/./sw/device/lib/base/bitfield.h:76
OT_WARN_UNUSED_RESULT
inline uint32_t bitfield_field32_write(uint32_t bitfield,
                                       bitfield_field32_t field,
                                       uint32_t value) {
  bitfield &= ~(field.mask << field.index);
  bitfield |= (value & field.mask) << field.index;
e0000336:       0542                    slli    a0,a0,0x10
e0000338:       00156513                ori     a0,a0,1
abs_mmio_write32():
/proc/self/cwd/./sw/device/lib/base/abs_mmio.h:83
e000033c:       c988                    sw      a0,16(a1)
uart_init():
/proc/self/cwd/sw/device/silicon_creator/lib/drivers/uart.c:51
  abs_mmio_write32(TOP_EARLGREY_UART0_BASE_ADDR + UART_CTRL_REG_OFFSET, reg);

  // Disable interrupts.
  abs_mmio_write32(TOP_EARLGREY_UART0_BASE_ADDR + UART_INTR_ENABLE_REG_OFFSET,
                   0u);
  return kErrorOk;
e000033e:       73900513                li      a0,1849
abs_mmio_write32():
/proc/self/cwd/./sw/device/lib/base/abs_mmio.h:83
e0000342:       0005a223                sw      zero,4(a1)
uart_init():
/proc/self/cwd/sw/device/silicon_creator/lib/drivers/uart.c:51
e0000346:       8082                    ret

e0000348 <uart_putchar>:
uart_putchar():
/proc/self/cwd/sw/device/silicon_creator/lib/drivers/uart.c:66
  uint32_t reg =
      abs_mmio_read32(TOP_EARLGREY_UART0_BASE_ADDR + UART_STATUS_REG_OFFSET);
  return bitfield_bit32_read(reg, UART_STATUS_TXIDLE_BIT);
}

void uart_putchar(uint8_t byte) {
e0000348:           c00005b7            lui     a1,0xc0000
abs_mmio_read32():
/proc/self/cwd/./sw/device/lib/base/abs_mmio.h:73
  return *((volatile uint32_t *)addr);
e000034c:       /-> 49d0                        lw      a2,20(a1)
bitfield_bit32_read():
/proc/self/cwd/./sw/device/lib/base/bitfield.h:122
 */
OT_WARN_UNUSED_RESULT
inline bool bitfield_bit32_read(uint32_t bitfield,
                                bitfield_bit32_index_t bit_index) {
  return bitfield_field32_read(bitfield,
                               bitfield_bit32_to_field32(bit_index)) == 0x1u;
e000034e:       |   8a05                        andi    a2,a2,1
uart_putchar():
/proc/self/cwd/sw/device/silicon_creator/lib/drivers/uart.c:68
  // If the transmit FIFO is full, wait.
  while (uart_tx_full()) {
e0000350:       \-- fe75                        bnez    a2,e000034c <uart_putchar+0x4>
e0000352:           c00005b7            lui     a1,0xc0000
e0000356:           01c58613            addi    a2,a1,28 # c000001c <fromhost+0xdfff000c>
abs_mmio_write32():
/proc/self/cwd/./sw/device/lib/base/abs_mmio.h:83
  *((volatile uint32_t *)addr) = value;
e000035a:           c208                        sw      a0,0(a2)
abs_mmio_read32():
/proc/self/cwd/./sw/device/lib/base/abs_mmio.h:73
  return *((volatile uint32_t *)addr);
e000035c:       /-> 49c8                        lw      a0,20(a1)
bitfield_bit32_read():
/proc/self/cwd/./sw/device/lib/base/bitfield.h:122
e000035e:       |   8921                        andi    a0,a0,8
uart_putchar():
/proc/self/cwd/sw/device/silicon_creator/lib/drivers/uart.c:74
  }
  uint32_t reg = bitfield_field32_write(0, UART_WDATA_WDATA_FIELD, byte);
  abs_mmio_write32(TOP_EARLGREY_UART0_BASE_ADDR + UART_WDATA_REG_OFFSET, reg);

  // If the transmitter is active, wait.
  while (!uart_tx_idle()) {
e0000360:       \-- dd75                        beqz    a0,e000035c <uart_putchar+0x14>
/proc/self/cwd/sw/device/silicon_creator/lib/drivers/uart.c:76
  }
}
e0000362:           8082                        ret

e0000364 <otp_read32>:
otp_read32():
/proc/self/cwd/sw/device/silicon_creator/lib/drivers/otp.c:18
#include "hw/top_earlgrey/sw/autogen/top_earlgrey.h"
#include "otp_ctrl_regs.h"  // Generated.

enum { kBase = TOP_EARLGREY_OTP_CTRL_CORE_BASE_ADDR };

uint32_t otp_read32(uint32_t address) {
e0000364:       c01315b7                lui     a1,0xc0131
/proc/self/cwd/sw/device/silicon_creator/lib/drivers/otp.c:19
  return sec_mmio_read32(kBase + OTP_CTRL_SW_CFG_WINDOW_REG_OFFSET + address);
e0000368:       952e                    add     a0,a0,a1
e000036a:       a8b1                    j       e00003c6 <sec_mmio_read32>

e000036c <sec_mmio_init>:
launder32():
/proc/self/cwd/./sw/device/lib/base/hardened.h:244
e000036c:           4601                        li      a2,0
e000036e:           4681                        li      a3,0
e0000370:           4701                        li      a4,0
e0000372:           4501                        li      a0,0
e0000374:           00000597            auipc   a1,0x0
e0000378:           12c58593            addi    a1,a1,300 # e00004a0 <sec_mmio_ctx>
sec_mmio_init():
/proc/self/cwd/sw/device/silicon_creator/lib/base/sec_mmio.c:53
  // mechanism.
  HARDENED_CHECK_LT(i, kSecMmioRegFileSize);
}

void sec_mmio_init(void) {
  sec_mmio_ctx.last_index = launder32(0);
e000037c:           c190                        sw      a2,0(a1)
/proc/self/cwd/sw/device/silicon_creator/lib/base/sec_mmio.c:54
  sec_mmio_ctx.write_count = launder32(0);
e000037e:           c1d4                        sw      a3,4(a1)
/proc/self/cwd/sw/device/silicon_creator/lib/base/sec_mmio.c:55
  sec_mmio_ctx.check_count = launder32(0);
e0000380:           c5d8                        sw      a4,12(a1)
/proc/self/cwd/sw/device/silicon_creator/lib/base/sec_mmio.c:56
  sec_mmio_ctx.expected_write_count = launder32(0);
e0000382:           c588                        sw      a0,8(a1)
e0000384:           3e800613            li      a2,1000
e0000388:           56fd                        li      a3,-1
/proc/self/cwd/sw/device/silicon_creator/lib/base/sec_mmio.c:58
  for (size_t i = 0; i < ARRAYSIZE(sec_mmio_ctx.addrs); ++i) {
    sec_mmio_ctx.addrs[i] = UINT32_MAX;
e000038a:       /-> 7d858713            addi    a4,a1,2008
e000038e:       |   7cd72c23            sw      a3,2008(a4)
/proc/self/cwd/sw/device/silicon_creator/lib/base/sec_mmio.c:59
    sec_mmio_ctx.values[i] = UINT32_MAX;
e0000392:       |   c994                        sw      a3,16(a1)
/proc/self/cwd/sw/device/silicon_creator/lib/base/sec_mmio.c:57
  for (size_t i = 0; i < ARRAYSIZE(sec_mmio_ctx.addrs); ++i) {
e0000394:       |   167d                        addi    a2,a2,-1
e0000396:       |   0591                        addi    a1,a1,4
e0000398:       \-- fa6d                        bnez    a2,e000038a <sec_mmio_init+0x1e>
e000039a:           00000597            auipc   a1,0x0
e000039e:           10658593            addi    a1,a1,262 # e00004a0 <sec_mmio_ctx>
/proc/self/cwd/sw/device/silicon_creator/lib/base/sec_mmio.c:61
  }
  uint32_t check = kSecMmioValZero ^ sec_mmio_ctx.last_index;
e00003a2:           4190                        lw      a2,0(a1)
/proc/self/cwd/sw/device/silicon_creator/lib/base/sec_mmio.c:62
  check ^= sec_mmio_ctx.write_count;
e00003a4:           41d4                        lw      a3,4(a1)
/proc/self/cwd/sw/device/silicon_creator/lib/base/sec_mmio.c:63
  check ^= sec_mmio_ctx.check_count;
e00003a6:           45cc                        lw      a1,12(a1)
e00003a8:           8e35                        xor     a2,a2,a3
/proc/self/cwd/sw/device/silicon_creator/lib/base/sec_mmio.c:64
  check ^= sec_mmio_ctx.expected_write_count;
e00003aa:           8db1                        xor     a1,a1,a2
e00003ac:           8d2d                        xor     a0,a0,a1
e00003ae:           3ca595b7            lui     a1,0x3ca59
e00003b2:           65a58593            addi    a1,a1,1626 # 3ca5965a <tohost+0x3ca39652>
e00003b6:           8d2d                        xor     a0,a0,a1
/proc/self/cwd/sw/device/silicon_creator/lib/base/sec_mmio.c:65
  HARDENED_CHECK_EQ(check, kSecMmioValZero);
e00003b8:       /-- 00b50663            beq     a0,a1,e00003c4 <sec_mmio_init+0x58>
e00003bc:       |   0000                        unimp
e00003be:       |   0000                        unimp
e00003c0:       |   0000                        unimp
e00003c2:       |   0000                        unimp
/proc/self/cwd/sw/device/silicon_creator/lib/base/sec_mmio.c:66
}
e00003c4:       \-> 8082                        ret

e00003c6 <sec_mmio_read32>:
sec_mmio_read32():
/proc/self/cwd/sw/device/silicon_creator/lib/base/sec_mmio.c:78
    sec_mmio_ctx.values[i] = UINT32_MAX;
  }
  HARDENED_CHECK_EQ(sec_mmio_ctx.check_count, 0);
}

uint32_t sec_mmio_read32(uint32_t addr) {
e00003c6:           1101                        addi    sp,sp,-32
e00003c8:           ce06                        sw      ra,28(sp)
e00003ca:           cc22                        sw      s0,24(sp)
e00003cc:           ca26                        sw      s1,20(sp)
e00003ce:           c84a                        sw      s2,16(sp)
e00003d0:           c64e                        sw      s3,12(sp)
e00003d2:           842a                        mv      s0,a0
abs_mmio_read32():
/proc/self/cwd/./sw/device/lib/base/abs_mmio.h:73
e00003d4:           00052903            lw      s2,0(a0)
e00003d8:           21692537            lui     a0,0x21692
e00003dc:           43650993            addi    s3,a0,1078 # 21692436 <tohost+0x2167242e>
sec_mmio_read32():
/proc/self/cwd/sw/device/silicon_creator/lib/base/sec_mmio.c:80
  uint32_t value = abs_mmio_read32(addr);
  uint32_t masked_value = value ^ kSecMmioMaskVal;
e00003e0:           013944b3            xor     s1,s2,s3
/proc/self/cwd/sw/device/silicon_creator/lib/base/sec_mmio.c:82
  barrier32(masked_value);
  upsert_register(addr, masked_value);
e00003e4:           8522                        mv      a0,s0
e00003e6:           85a6                        mv      a1,s1
e00003e8:           2015                        jal     e000040c <upsert_register>
abs_mmio_read32():
/proc/self/cwd/./sw/device/lib/base/abs_mmio.h:73
e00003ea:           4008                        lw      a0,0(s0)
sec_mmio_read32():
/proc/self/cwd/sw/device/silicon_creator/lib/base/sec_mmio.c:83
  HARDENED_CHECK_EQ((abs_mmio_read32(addr) ^ kSecMmioMaskVal), masked_value);
e00003ec:           01354533            xor     a0,a0,s3
e00003f0:       /-- 00950663            beq     a0,s1,e00003fc <sec_mmio_read32+0x36>
e00003f4:       |   0000                        unimp
e00003f6:       |   0000                        unimp
e00003f8:       |   0000                        unimp
e00003fa:       |   0000                        unimp
/proc/self/cwd/sw/device/silicon_creator/lib/base/sec_mmio.c:85

  return value;
e00003fc:       \-> 854a                        mv      a0,s2
e00003fe:           49b2                        lw      s3,12(sp)
e0000400:           4942                        lw      s2,16(sp)
e0000402:           44d2                        lw      s1,20(sp)
e0000404:           4462                        lw      s0,24(sp)
e0000406:           40f2                        lw      ra,28(sp)
e0000408:           6105                        addi    sp,sp,32
e000040a:           8082                        ret

e000040c <upsert_register>:
upsert_register():
/proc/self/cwd/sw/device/silicon_creator/lib/base/sec_mmio.c:34
  const size_t last_index = sec_mmio_ctx.last_index;
e000040c:                 00000817              auipc   a6,0x0
e0000410:                 09480813              addi    a6,a6,148 # e00004a0 <sec_mmio_ctx>
e0000414:                 00082703              lw      a4,0(a6)
launder32():
/proc/self/cwd/./sw/device/lib/base/hardened.h:244
e0000418:                 4781                  li      a5,0
e000041a:                 4681                  li      a3,0
upsert_register():
/proc/self/cwd/sw/device/silicon_creator/lib/base/sec_mmio.c:36
  for (; launder32(i) < last_index; ++i) {
e000041c:       /-------- 02e7f163              bgeu    a5,a4,e000043e <upsert_register+0x32>
e0000420:       |         4681                  li      a3,0
e0000422:       |         87c2                  mv      a5,a6
/proc/self/cwd/sw/device/silicon_creator/lib/base/sec_mmio.c:37
    if (sec_mmio_ctx.addrs[i] == addr) {
e0000424:       |  /----> 7d878613              addi    a2,a5,2008
e0000428:       |  |      7d862603              lw      a2,2008(a2)
e000042c:       |  |  /-- 00a60863              beq     a2,a0,e000043c <upsert_register+0x30>
/proc/self/cwd/sw/device/silicon_creator/lib/base/sec_mmio.c:36
  for (; launder32(i) < last_index; ++i) {
e0000430:       |  |  |   0685                  addi    a3,a3,1
launder32():
/proc/self/cwd/./sw/device/lib/base/hardened.h:244
e0000432:       |  |  |   8636                  mv      a2,a3
upsert_register():
/proc/self/cwd/sw/device/silicon_creator/lib/base/sec_mmio.c:36
e0000434:       |  |  |   0791                  addi    a5,a5,4
e0000436:       |  \--|-- fee667e3              bltu    a2,a4,e0000424 <upsert_register+0x18>
e000043a:       +-----|-- a011                  j       e000043e <upsert_register+0x32>
/proc/self/cwd/sw/device/silicon_creator/lib/base/sec_mmio.c:38
      sec_mmio_ctx.values[i] = value;
e000043c:       |     \-> cb8c                  sw      a1,16(a5)
launder32():
/proc/self/cwd/./sw/device/lib/base/hardened.h:244
e000043e:       \-------> 8636                  mv      a2,a3
upsert_register():
/proc/self/cwd/sw/device/silicon_creator/lib/base/sec_mmio.c:42
  if (launder32(i) == last_index && launder32(i) < kSecMmioRegFileSize) {
e0000440:             /-- 02e61463              bne     a2,a4,e0000468 <upsert_register+0x5c>
launder32():
/proc/self/cwd/./sw/device/lib/base/hardened.h:244
e0000444:             |   8636                  mv      a2,a3
e0000446:             |   3e700713              li      a4,999
upsert_register():
/proc/self/cwd/sw/device/silicon_creator/lib/base/sec_mmio.c:42
e000044a:             +-- 00c76f63              bltu    a4,a2,e0000468 <upsert_register+0x5c>
/proc/self/cwd/sw/device/silicon_creator/lib/base/sec_mmio.c:43
    sec_mmio_ctx.addrs[i] = addr;
e000044e:             |   00269613              slli    a2,a3,0x2
e0000452:             |   9642                  add     a2,a2,a6
e0000454:             |   7d860713              addi    a4,a2,2008
e0000458:             |   7ca72c23              sw      a0,2008(a4)
/proc/self/cwd/sw/device/silicon_creator/lib/base/sec_mmio.c:44
    sec_mmio_ctx.values[i] = value;
e000045c:             |   ca0c                  sw      a1,16(a2)
/proc/self/cwd/sw/device/silicon_creator/lib/base/sec_mmio.c:45
    ++sec_mmio_ctx.last_index;
e000045e:             |   00082503              lw      a0,0(a6)
e0000462:             |   0505                  addi    a0,a0,1
e0000464:             |   00a82023              sw      a0,0(a6)
e0000468:             \-> 3e800513              li      a0,1000
/proc/self/cwd/sw/device/silicon_creator/lib/base/sec_mmio.c:49
  HARDENED_CHECK_LT(i, kSecMmioRegFileSize);
e000046c:             /-- 00a6e663              bltu    a3,a0,e0000478 <upsert_register+0x6c>
e0000470:             |   0000                  unimp
e0000472:             |   0000                  unimp
e0000474:             |   0000                  unimp
e0000476:             |   0000                  unimp
/proc/self/cwd/sw/device/silicon_creator/lib/base/sec_mmio.c:50
}
e0000478:             \-> 8082                  ret
